Microsoft (R) COFF/PE Dumper Version 14.44.35216.0
Copyright (C) Microsoft Corporation.  All rights reserved.


Dump of file CubeProgrammer_API.dll

File Type: DLL

  Section contains the following exports for CubeProgrammer_API.dll

    00000000 characteristics
    6850205F time date stamp Mon Jun 16 15:47:11 2025
        0.00 version
           1 ordinal base
        3312 number of functions
        3312 number of names

    ordinal hint RVA      name

          1    0 0049E1CA AddedLoadersToMenu
          2    1 0049E340 CloseSession
          3    2 00003F50 CoreReset
          4    3 0049E1E0 CurSBInfo
          5    4 00007D10 DebugAuth
          6    5 0049F9B8 DefLiveID
          7    6 0049F9C0 DefaultProtocol
          8    7 0049C0B4 DeviceID
          9    8 0001B7F0 DisablePswdRDP1
         10    9 0001BDA0 DisablePswdRDP2
         11    A 0049F9A4 DiscoveredDevices
         12    B 00003410 Discovery
         13    C 004A0BC0 Display
         14    D 0049C848 DisplayManager
         15    E 0049E1C9 ElfLoaderTransferedToRam
         16    F 0049C0C0 Exposed_permissions
         17   10 003A9130 FirstAction
         18   11 0049F9B4 FirstInstall
         19   12 0049F5B8 ForLoop
         20   13 0049E330 GenerateLicense
         21   14 0049E2F8 GetCardLifeCycleStatus
         22   15 0049E318 GetCounter
         23   16 0049E308 GetFirmwareIdentifier
         24   17 0049E2E0 GetHSMVersion
         25   18 0049E2E8 GetTypeValue
         26   19 00003F00 Halt
         27   1A 00003FB0 HardFaultAnalyser
         28   1B 00003F70 HardWareReset
         29   1C 003A9134 InitTimeoutInSec
         30   1D 0049E358 Inizialize
         31   1E 0049E350 Inizialize2
         32   1F 0001B520 LockRDP1
         33   20 0001BAD0 LockRDP2
         34   21 003A9148 MassEraseTimeoutInSec
         35   22 0049CB61 NeedDelete
         36   23 0000DC50 OBkeyProv
         37   24 0049E348 OpenSession
         38   25 0049E1D8 OriginalBgColors
         39   26 00008260 OtpProvisionnigLock
         40   27 004A04C0 PermissionsArray
         41   28 004A04C8 PermissionsNumber
         42   29 0049C09C Permissions_Number
         43   2A 00008340 ProvisioningOTP
         44   2B 003A9010 RSSversion
         45   2C 003A913C ReadTimeoutInSec
         46   2D 00003EE0 Run
         47   2E 0049E200 SBInfo
         48   2F 0049F758 SCRIPT_ERROR_LEVEL
         49   30 0049FAF0 SDM_Authenticate
         50   31 0049FAF8 SDM_Close
         51   32 0049FAE8 SDM_Discovery
         52   33 0049FAE0 SDM_Lock
         53   34 0049FB00 SDM_Open
         54   35 0000B080 SFIParsedInfo
         55   36 003A9144 SectorEraseTimeoutInSec
         56   37 0049E300 SetCardLifeCycleStatus
         57   38 0049E310 SetFirmwareIdentifier
         58   39 0049E328 SetFirmwareKey
         59   3A 0049E320 SetMaxCounter
         60   3B 0049F9A8 StLinkList
         61   3C 0049E2F0 StPersoDataUpdate
         62   3D 00003F90 Step
         63   3E 00003F30 SystemReset
         64   3F 0049C858 Target_Interface
         65   40 0049C850 Target_InterfaceCopy
         66   41 0049E338 Terminate
         67   42 0049E4E0 TmpBuf
         68   43 0049F9D8 USE_HSM
         69   44 003A9140 VerificationTimeoutInSec
         70   45 003A9138 WriteTimeoutInSec
         71   46 002B4C80 _GCC_specific_handler
         72   47 002B5020 _Unwind_Backtrace
         73   48 002B5000 _Unwind_DeleteException
         74   49 002B4C30 _Unwind_FindEnclosingFunction
         75   4A 002B4FD0 _Unwind_ForcedUnwind
         76   4B 002B4BD0 _Unwind_GetCFA
         77   4C 002B4C60 _Unwind_GetDataRelBase
         78   4D 002B4B90 _Unwind_GetGR
         79   4E 002B4BE0 _Unwind_GetIP
         80   4F 002B4BF0 _Unwind_GetIPInfo
         81   50 002B4C10 _Unwind_GetLanguageSpecificData
         82   51 002B4C20 _Unwind_GetRegionStart
         83   52 002B4C70 _Unwind_GetTextRelBase
         84   53 002B4EB0 _Unwind_RaiseException
         85   54 002B4F00 _Unwind_Resume
         86   55 002B4FB0 _Unwind_Resume_or_Rethrow
         87   56 002B4BB0 _Unwind_SetGR
         88   57 002B4C00 _Unwind_SetIP
         89   58 0003E880 _Z10FreeOBDataP15OptionBytesData
         90   59 0003E240 _Z10GetBitListRSt6vectorI7CSectorSaIS0_EEPPP5bit_Cj
         91   5A 00093B30 _Z10RemoveCharRNSt7__cxx1112basic_stringIcSt11char_traitsIcESaIcEEE
         92   5B 000FCE90 _Z10fwdelstateh
         93   5C 000FCE60 _Z10getIDstateh
         94   5D 000CB8C0 _Z10loadHSMDll7QString
         95   5E 00014F90 _Z10programSmiPKwS0_iii
         96   5F 00260F80 _Z10readMemoryPK19SDMDeviceDescriptoryjyjPvS2_
         97   60 00261130 _Z10resetStartjPv
         98   61 00001D30 _Z10startsWithPKcS0_
         99   62 0029C480 _Z11AddSegToElfRK7QStringRK10QByteArrayjS1_h
        100   63 0003E3B0 _Z11FreeBitListPP5bit_Cj
        101   64 0003E960 _Z11GetFileDataP8FileData
        102   65 00137F70 _Z11getSvdFieldR9Field_SVD
        103   66 00261D60 _Z11presentFormPK7SDMFormPv
        104   67 00261200 _Z11resetFinishjPv
        105   68 00261060 _Z11writeMemoryPK19SDMDeviceDescriptoryjyjPKvPv
        106   69 0003DF30 _Z12GetBitValuesRSt6vectorI8bitValueSaIS0_EEPPP10bitValue_C
        107   6A 000942B0 _Z12GetSectorInf7QString
        108   6B 002A9940 _Z12ParseErrorCbPvjPKcPc
        109   6C 002A97C0 _Z12ParsedDataCbPvP16FileParsedData_t
        110   6D 00004770 _Z12getOtpStructv
        111   6E 00124990 _Z12getch_noechov
        112   6F 00124970 _Z12kbhit_noechov
        113   70 00262C30 _Z12presentForm1PK7SDMFormPv
        114   71 00094AD0 _Z12split_stringNSt7__cxx1112basic_stringIcSt11char_traitsIcESaIcEEEc
        115   72 0003E6C0 _Z13FreeBanksListPP6bank_Cj
        116   73 0003E050 _Z13FreeBitValuesPP10bitValue_Cj
        117   74 000B0460 _Z13FreeFileDataPPP8FileData
        118   75 0003E550 _Z13GetConfigBankR5CBank
        119   76 000FCEC0 _Z13checkRSSerrorh
        120   77 000FCD50 _Z13checkRSSstateh
        121   78 002A8E30 _Z13cleanupParserP8Parser_tPhP16FileParsedData_tPi
        122   79 00138510 _Z13freeSvdFieldsPP11Field_SVD_Cj
        123   7A 00260F60 _Z13updateMessagePKcPv
        124   7B 00093CA0 _Z14ChooseDeviceIDj
        125   7C 000FCDB0 _Z14FWupgradeStateh
        126   7D 0003E5A0 _Z14GetConfigBanksRSt6vectorI5CBankSaIS0_EEPPP6bank_C
        127   7E 0003E8F0 _Z14GetSegmentDataSt6vectorI11SegmentDataSaIS0_EE
        128   7F 00292580 _Z14MotorolaSave32P5QFilePhjjj
        129   80 002A9AB0 _Z14StartSegmentCbPvj
        130   81 000C7B50 _Z14displayMessageiPKw
        131   82 0008FEC0 _Z14getDfuStateMapv
        132   83 00138100 _Z14getSvdRegisterR12Register_SVD
        133   84 00260E80 _Z14registerAccessPK19SDMDeviceDescriptorP17SDMRegisterAccessyPyPv
        134   85 00260F30 _Z14updateProgressPKchPv
        135   86 002A9890 _Z15FileSegmentsTriPv
        136   87 002A9810 _Z15FinishSegmentCbPvjj
        137   88 000B0480 _Z15FreeUpdatedDataRSt6vectorI6UpDataSaIS0_EE
        138   89 0003E0B0 _Z15GetBitStructureRP3bitj
        139   8A 0003E440 _Z15GetCategoryListRSt6vectorI9CCategorySaIS0_EEPPP10category_Cj
        140   8B 0003EA90 _Z15GetDeviceGenInfP15TargetInterface
        141   8C 00090050 _Z15getDfuStatusMapv
        142   8D 00004C10 _Z15programIPModuleP7FileSMU
        143   8E 002613F0 _Z15showHelpMessagev
        144   8F 0003E530 _Z16FreeCategoryListPP10category_Cj
        145   90 0003E770 _Z16FreeConfigPeriphP12peripheral_C
        146   91 00138020 _Z16getSvdFieldsListRSt6vectorI9Field_SVDSaIS0_EEPPP11Field_SVD_C
        147   92 00292830 _Z17createDummyHeaderijj
        148   93 00292C70 _Z17createSignedImageR10QByteArray
        149   94 00001E50 _Z17getStLinkProbeNbrv
        150   95 00005C60 _Z17securityAvailablev
        151   96 0003E7B0 _Z18GetOptionBytesdataP8FileData
        152   97 002A8EB0 _Z18HandleSRecordTypesP8Parser_tPKcPhh
        153   98 00004CD0 _Z18concatinateLicenseP7FileSMUP8FileData
        154   99 001382E0 _Z18getSvdPeripheral_CR14Peripheral_SVD
        155   9A 0003E6E0 _Z19GetConfigPeripheralR11CPeripheral
        156   9B 00090450 _Z19dfu_state_to_stringh
        157   9C 001385D0 _Z19freeSvdDeviceInfo_CP17SVD_Device_Info_C
        158   9D 00138590 _Z19freeSvdPeripheral_CP16Peripheral_SVD_C
        159   9E 00176810 _Z19getDbgInterfaceInfoP15TargetInterface
        160   9F 001381E0 _Z19getSvdRegistersListRSt6vectorI12Register_SVDSaIS0_EEPPP14Register_SVD_C
        161   A0 0009BD60 _Z19usb_speed_to_stringj
        162   A1 0003E3D0 _Z20GetCategoryStructureR9CCategoryj
        163   A2 000902A0 _Z20dfu_status_to_stringh
        164   A3 00138570 _Z20freeSvdRegistersListPP14Register_SVD_Cj
        165   A4 000027B0 _Z20getOptionBytesStructv
        166   A5 00138350 _Z20getSvdPeripheralInfoR14Peripheral_SVD
        167   A6 000033B0 _Z21getDebugInterfaceInfoP15TargetInterface
        168   A7 001383A0 _Z21getSvdPeripheralsInfoRSt6vectorI14Peripheral_SVDSaIS0_EEPPP17Peripheral_Info_C
        169   A8 000194B0 _Z22connectTargetInterface7QString
        170   A9 001384A0 _Z22convertSvdDeviceInfo_CR10Device_SVD
        171   AA 00005A50 _Z24securityExtensionFactoryv
        172   AB 000098E0 _Z25manipulateSecureAddressesPj
        173   AC 00095B70 _Z26GetnonConticuousSectorsAddRSt6vectorIjSaIjEER5QListI7QStringES5_
        174   AD 00002820 _Z27fastRomGetOptionBytesStructv
        175   AE 000A0F80 _Z31justifyDuplicatedPartitionNamesRSt6vectorINSt7__cxx1112basic_stringIcSt11char_traitsIcESaIcEEESaIS5_EERS_I9SectorInfSaIS9_EE
        176   AF 002C6500 _Z41qRegisterNormalizedMetaTypeImplementationI8QJSValueEiRK10QByteArray
        177   B0 0049F940 _Z4varsB5cxx11
        178   B1 002927E0 _Z5CRC32Phj
        179   B2 000C7900 _Z5loadBii
        180   B3 000C7770 _Z6InitPBv
        181   B4 00001D80 _Z6appendPcS_i
        182   B5 002C65A0 _Z6printfPKcz
        183   B6 002C65F0 _Z7fprintfP6_iobufPKcz
        184   B7 00292310 _Z7put_recPhjjjP5QFile
        185   B8 000C8F90 _Z8SAMerrorj
        186   B9 002927B0 _Z8checksumPhj
        187   BA 00001CE0 _Z8endsWithPKcS0_
        188   BB 0000A360 _Z8saveFileP8FileDataPKw
        189   BC 00292430 _Z9IntelSaveP5QFilePhjj
        190   BD 000C8F60 _Z9SAMstatusj
        191   BE 00093BC0 _Z9djb2_hashPct
        192   BF 002A8FC0 _Z9parseFileP5QFileP20FileParserCallback_s
        193   C0 0017CAD0 _ZN10CliManager10cliExecuteEi5QListI7QStringEPS_S1_
        194   C1 00174640 _ZN10CliManager11displayHelpEv
        195   C2 001745B0 _ZN10CliManager11isSecureDevEj
        196   C3 00250350 _ZN10CliManager12connectJlinkE5QListI7QStringE
        197   C4 00177360 _ZN10CliManager12isBootLoaderE7QString
        198   C5 00176870 _ZN10CliManager13dispFlashSizeEfj
        199   C6 0017B6B0 _ZN10CliManager13getParametersE5QListI7QStringE
        200   C7 00178CA0 _ZN10CliManager13getTargetListEPP22debugConnectParametersib
        201   C8 0017AD80 _ZN10CliManager16getSectorsVectorE5QListI7QStringEPt
        202   C9 00177C20 _ZN10CliManager18SecurityExtFactoryEjP15TargetInterface
        203   CA 00177570 _ZN10CliManager18setDefaultOBForBeeEv
        204   CB 0017C920 _ZN10CliManager20extractParamsOptionsE5QListI7QStringERS1_
        205   CC 00176ED0 _ZN10CliManager21disableSecurityForBeeEv
        206   CD 00179AD0 _ZN10CliManager34deleteAndCreaterInterfaceUSBserialEv
        207   CE 00174630 _ZN10CliManager7exitAppE9ERRORCODE
        208   CF 00177A30 _ZN10CliManagerC1Ev
        209   D0 00177A30 _ZN10CliManagerC2Ev
        210   D1 00174440 _ZN10CliManagerD1Ev
        211   D2 00174440 _ZN10CliManagerD2Ev
        212   D3 002C6AD0 _ZN10ConfigBankC1ERKS_
        213   D4 002C6E60 _ZN10ConfigBankD1Ev
        214   D5 000C8660 _ZN10DisplayMng10logMessageEiPKwz
        215   D6 000C7FF0 _ZN10DisplayMng11getInstanceEv
        216   D7 000C80E0 _ZN10DisplayMng11initLogFileE7QString
        217   D8 000C81D0 _ZN10DisplayMng14QStringToWCharERK7QStringRNSt7__cxx1112basic_stringIwSt11char_traitsIwESaIwEEE
        218   D9 000C8360 _ZN10DisplayMng15InitProgressBarEv
        219   DA 000C8380 _ZN10DisplayMng16logMessageStlinkEPKwz
        220   DB 000C8190 _ZN10DisplayMng23setTranslationFilesPathE7QString
        221   DC 000C8330 _ZN10DisplayMng7loadBarEii
        222   DD 000C80C0 _ZN10DisplayMngD1Ev
        223   DE 000C80C0 _ZN10DisplayMngD2Ev
        224   DF 000C9940 _ZN10HSMmanager10GetHSMInfoEv
        225   E0 000C9F10 _ZN10HSMmanager11GenerateLicEPhS0_PP8FileDatab
        226   E1 000C91C0 _ZN10HSMmanager12TerminateComEb
        227   E2 000C97F0 _ZN10HSMmanager13GetCardStatusEv
        228   E3 0049E2C0 _ZN10HSMmanager13isInitializedE
        229   E4 000C90A0 _ZN10HSMmanager14HSMOpenSessionEiPmb
        230   E5 000C9260 _ZN10HSMmanager15HSMCloseSessionEmb
        231   E6 000C9160 _ZN10HSMmanager22HSMOpenSessionAPIusageEiPmb
        232   E7 000C9680 _ZN10HSMmanager6GetCtrEPj
        233   E8 000C9550 _ZN10HSMmanager7GetFWIDEPh
        234   E9 000C9320 _ZN10HSMmanager7InitComEb
        235   EA 000C8F20 _ZN10HSMmanagerC1Ev
        236   EB 000C8F20 _ZN10HSMmanagerC2Ev
        237   EC 000C8F50 _ZN10HSMmanagerD1Ev
        238   ED 000C8F50 _ZN10HSMmanagerD2Ev
        239   EE 00024220 _ZN10Interrupts18clearAllInterruptsEv
        240   EF 00024200 _ZN10InterruptsC1EP16ST_LINKInterface
        241   F0 00024200 _ZN10InterruptsC2EP16ST_LINKInterface
        242   F1 0003BCE0 _ZN10OTPmanager10lockExistsE5QListI7QStringE
        243   F2 0003B2E0 _ZN10OTPmanager13getFwritePathE7QString
        244   F3 0003C7A0 _ZN10OTPmanager13init_otp_dataEv
        245   F4 0003AF10 _ZN10OTPmanager14ExecuteLockCmdE7QString
        246   F5 0003B000 _ZN10OTPmanager14paddingOTPFileEiP8FileData
        247   F6 0003B0A0 _ZN10OTPmanager15UploadOTPStructEPP8FileDatai
        248   F7 0003AFF0 _ZN10OTPmanager15freeUpdatedDataEv
        249   F8 0003AFD0 _ZN10OTPmanager15init_otp_statusEv
        250   F9 0003D420 _ZN10OTPmanager15promptFwriteCmdE9FwriteCmd
        251   FA 0003B820 _ZN10OTPmanager16refresh_otp_dataEv
        252   FB 0003AF00 _ZN10OTPmanager17ExecuteProgramCmdE7QString
        253   FC 0003AF20 _ZN10OTPmanager17update_otp_statusEh
        254   FD 0003AFE0 _ZN10OTPmanager19getStructureVersionEv
        255   FE 0003B950 _ZN10OTPmanagerC1EP15TargetInterface
        256   FF 0003B950 _ZN10OTPmanagerC2EP15TargetInterface
        257  100 0003AD70 _ZN10OTPmanagerD1Ev
        258  101 0003AD70 _ZN10OTPmanagerD2Ev
        259  102 002C70C0 _ZN10QByteArray6detachEv
        260  103 000C2560 _ZN11CElfHandler10FindSymbolE7QStringPyS1_
        261  104 000C2C00 _ZN11CElfHandler7ReadElfEPc
        262  105 000C2AA0 _ZN11CElfHandlerC1Ev
        263  106 000C2AA0 _ZN11CElfHandlerC2Ev
        264  107 000C2490 _ZN11CElfHandlerD1Ev
        265  108 000C2490 _ZN11CElfHandlerD2Ev
        266  109 002C78E0 _ZN11CPeripheralC1ERKS_
        267  10A 002C7B30 _ZN11CPeripheralD1Ev
        268  10B 00077840 _ZN11DataGateWay10GetCPUTypeE15GenInformations
        269  10C 0007F790 _ZN11DataGateWay11GetOBConfigEhh
        270  10D 0007C9B0 _ZN11DataGateWay11checkDeviceEt
        271  10E 00077530 _ZN11DataGateWay12deleteParserEv
        272  10F 00077730 _ZN11DataGateWay13GetAccessTypeE12ConfigPeriph
        273  110 000776A0 _ZN11DataGateWay13GetAccessTypeE13StoragePeriph
        274  111 00077980 _ZN11DataGateWay13GetAccessTypeE3Bit
        275  112 0007A560 _ZN11DataGateWay13GetConfigBankE10ConfigBank
        276  113 0007AB40 _ZN11DataGateWay13GetConfigconfE16ConfigConfPeriph
        277  114 00077810 _ZN11DataGateWay13GetDeviceTypeE15GenInformations
        278  115 00077A70 _ZN11DataGateWay14CheckDataStateEv
        279  116 00079240 _ZN11DataGateWay14CloneConfigBitE3BitRSt6vectorI16bitConfiguartionSaIS2_EE
        280  117 00077650 _ZN11DataGateWay14GetStorageTypeE12ConfigPeriph
        281  118 00077570 _ZN11DataGateWay14GetStorageTypeE13StoragePeriph
        282  119 00079C70 _ZN11DataGateWay15GetConfigSectorE12ConfigSector
        283  11A 0007F000 _ZN11DataGateWay16GetConfigeDeviceER13GenericDevicehh
        284  11B 0007F440 _ZN11DataGateWay16GetConfigeDeviceEhh
        285  11C 00078870 _ZN11DataGateWay16GetStorageConfigE13StoragePeriph
        286  11D 00078320 _ZN11DataGateWay17CloneStorageBanksESt6vectorI11StorageBankSaIS1_EE
        287  11E 00079D90 _ZN11DataGateWay17GetConfigCategoryE14ConfigCategory
        288  11F 0007CA60 _ZN11DataGateWay17GetConfigurationsE13InterfaceType
        289  120 0007F470 _ZN11DataGateWay17GetPConfigeDeviceER13GenericDevicehh
        290  121 0007F780 _ZN11DataGateWay17GetPConfigeDeviceEhh
        291  122 0007BA90 _ZN11DataGateWay18CloneGenericDeviceEP6Device
        292  123 0007AD10 _ZN11DataGateWay19GetConfigPeripheralE12ConfigPeriph
        293  124 000777C0 _ZN11DataGateWay19GetOrganizationTypeE13StorageConfig
        294  125 00077A80 _ZN11DataGateWay23CloneGenralInformationsEP6Device
        295  126 0007D170 _ZN11DataGateWay23GetConfigeConfigurationER23ConfigurationPeripheralhh
        296  127 00077A10 _ZN11DataGateWay23GetStorageConfigurationER17StoragePeripheralh
        297  128 0007C400 _ZN11DataGateWayC1Etb
        298  129 0007C400 _ZN11DataGateWayC2Etb
        299  12A 00078280 _ZN11DataGateWayD1Ev
        300  12B 00078280 _ZN11DataGateWayD2Ev
        301  12C 002936E0 _ZN11FileManager10MergeFilesERKSt6vectorIP8FileDataSaIS2_EEPS2_
        302  12D 002A4C40 _ZN11FileManager10extractDirENSt7__cxx1112basic_stringIwSt11char_traitsIwESaIwEEES5_
        303  12E 00296A80 _ZN11FileManager11ELF_ParsingEP5QFileP7FileELF
        304  12F 002A6990 _ZN11FileManager11MultipleCRCERKNSt7__cxx1112basic_stringIwSt11char_traitsIwESaIwEEEjjjh
        305  130 00293970 _ZN11FileManager11SFI_ParsingEP5QFileP7FileSFI
        306  131 002985A0 _ZN11FileManager11SMU_ParsingEP5QFilexP7FileSMU
        307  132 0029BE30 _ZN11FileManager11SaveHexFileEP8FileDataRKNSt7__cxx1112basic_stringIwSt11char_traitsIwESaIwEEE
        308  133 002956B0 _ZN11FileManager12SSFI_ParsingEP5QFileP7FileSFI
        309  134 0029C130 _ZN11FileManager12SaveSrecFileEP8FileDataRKNSt7__cxx1112basic_stringIwSt11char_traitsIwESaIwEEE
        310  135 002A7FA0 _ZN11FileManager14SaveFileModuleEP8FileMCSVRKNSt7__cxx1112basic_stringIwSt11char_traitsIwESaIwEEE
        311  136 002967F0 _ZN11FileManager15HexSrec_ParsingEP5QFileP8FileData
        312  137 00294AB0 _ZN11FileManager15SSP_SFI_ParsingEP5QFileP7FileSFI
        313  138 00298FE0 _ZN11FileManager15filter_tsv_fileEP5QFileP7FileTSV
        314  139 00296550 _ZN11FileManager17ReduceFileSegmentEP8FileData
        315  13A 00293310 _ZN11FileManager18GetDataFromSectionERKNSt7__cxx1112basic_stringIcSt11char_traitsIcESaIcEEES7_PPh
        316  13B 0029B3D0 _ZN11FileManager18extract_csv_configEP5QFileP8FileData
        317  13C 0029AA70 _ZN11FileManager18extract_csv_configEP5QFileP8FileDatab
        318  13D 00292300 _ZN11FileManager18setDisplayCallbackEPFviPKwE
        319  13E 002A46E0 _ZN11FileManager19SBSFUAddToUserAppliERKNSt7__cxx1112basic_stringIwSt11char_traitsIwESaIwEEES7_S7_
        320  13F 002A83E0 _ZN11FileManager19executeUnzipCommandE7QStringS0_
        321  140 0029D660 _ZN11FileManager19extract_ecsv_configEP5QFileP8FileECSV
        322  141 002A20D0 _ZN11FileManager19extract_mcsv_configEP5QFileP8FileMCSV
        323  142 002A8820 _ZN11FileManager24readPersoDataRsseVersionENSt7__cxx1112basic_stringIwSt11char_traitsIwESaIwEEE
        324  143 002A0000 _ZN11FileManager4OpenERKNSt7__cxx1112basic_stringIwSt11char_traitsIwESaIwEEEPP8FileTypehyjb
        325  144 002A5EF0 _ZN11FileManager7OpenCSVERKNSt7__cxx1112basic_stringIwSt11char_traitsIwESaIwEEE15CSV_TYPE_FORMATPP8FileType
        326  145 002A6550 _ZN11FileManager8SaveFileEP8FileDataRKNSt7__cxx1112basic_stringIwSt11char_traitsIwESaIwEEE
        327  146 002A5D40 _ZN11FileManager9unzipFileENSt7__cxx1112basic_stringIwSt11char_traitsIwESaIwEEES5_
        328  147 002922E0 _ZN11FileManagerC1Ev
        329  148 002922E0 _ZN11FileManagerC2Ev
        330  149 002922F0 _ZN11FileManagerD1Ev
        331  14A 002922F0 _ZN11FileManagerD2Ev
        332  14B 00274060 _ZN11KeyWrapping10getOBValueENSt7__cxx1112basic_stringIcSt11char_traitsIcESaIcEEERj
        333  14C 00279470 _ZN11KeyWrapping11installRSSeENSt7__cxx1112basic_stringIwSt11char_traitsIwESaIwEEEj
        334  14D 00274C30 _ZN11KeyWrapping11setRSSeAddrEjj
        335  14E 00276000 _ZN11KeyWrapping12KWoutputdumpEj7QString
        336  14F 0027B750 _ZN11KeyWrapping12launchRSSeKWE7QStringS0_S0_S0_S0_S0_S0_S0_S0_S0_
        337  150 00278F50 _ZN11KeyWrapping13getRSSeStatusERj
        338  151 0027A070 _ZN11KeyWrapping14AESKeyWrappingEjjj7QStringS0_S0_S0_S0_S0_S0_
        339  152 00277690 _ZN11KeyWrapping14EccKeyWrappingEjjjj7QStringS0_S0_S0_S0_S0_S0_S0_
        340  153 00278050 _ZN11KeyWrapping14RSAKeyWrappingEjjj7QStringS0_S0_S0_S0_S0_S0_
        341  154 00275F10 _ZN11KeyWrapping15sendRstCmdRssBlEv
        342  155 00275DA0 _ZN11KeyWrapping16setRSSexecuteCMDEjjj
        343  156 00276EA0 _ZN11KeyWrapping17PrivateKeyParsingE7QString
        344  157 00273F00 _ZN11KeyWrapping17ProgramPrivateKeyESt6vectorIhSaIhEEj
        345  158 00274540 _ZN11KeyWrapping19getSTM32_descriptorEv
        346  159 00279B50 _ZN11KeyWrapping20AESPrivateKeyParsingE7QString
        347  15A 002764C0 _ZN11KeyWrapping20ECCChipKeyWrappingFUEjjj7QStringS0_S0_S0_S0_S0_S0_
        348  15B 0027AA20 _ZN11KeyWrapping20ECCChipKeyWrappingLUEjjj7QStringS0_S0_S0_S0_S0_S0_
        349  15C 00274D00 _ZN11KeyWrapping20RSAPrivateKeyParsingE7QString
        350  15D 00275C30 _ZN11KeyWrapping21setRssExecuteCmdViaBlEhh
        351  15E 00274850 _ZN11KeyWrapping22setRssExecuteCmdViaDbgEjjj
        352  15F 00274CC0 _ZN11KeyWrapping24getSTM32_descriptor_AddrEjRj
        353  160 00273FC0 _ZN11KeyWrapping7calcCRCEPjj
        354  161 00278860 _ZN11KeyWrapping8setObCmdE7QString
        355  162 00274670 _ZN11KeyWrapping9checkBootEv
        356  163 00273DC0 _ZN11KeyWrappingC1EP15TargetInterface
        357  164 00273DC0 _ZN11KeyWrappingC2EP15TargetInterface
        358  165 002C7CB0 _ZN11QMetaObject16staticMetaObjectIL_ZN7QObject16staticMetaObjectEEEEPKS_v
        359  166 000FDCE0 _ZN11SecurityExt10GetOBValueENSt7__cxx1112basic_stringIcSt11char_traitsIcESaIcEEERj
        360  167 000FC3E0 _ZN11SecurityExt10SetLicenseE10QByteArray
        361  168 00106AD0 _ZN11SecurityExt10StartSMIv2Ejjj
        362  169 000FC4E0 _ZN11SecurityExt10programSspENSt7__cxx1112basic_stringIwSt11char_traitsIwESaIwEEES5_S5_iiS5_
        363  16A 000FC3D0 _ZN11SecurityExt11GetSecStateEv
        364  16B 000FC400 _ZN11SecurityExt11ReadProtectEj
        365  16C 000FC3E0 _ZN11SecurityExt11SecureWriteE10QByteArray
        366  16D 00102020 _ZN11SecurityExt11authKeyLockEv
        367  16E 000FD6E0 _ZN11SecurityExt11getFusErrorEj
        368  16F 000FD470 _ZN11SecurityExt11getFusStateEj
        369  170 00100620 _ZN11SecurityExt11getRSSstateEPhS0_
        370  171 000FC3A0 _ZN11SecurityExt11getkeyIndexEv
        371  172 000FC3F0 _ZN11SecurityExt12SetWriteModeEh
        372  173 00100DC0 _ZN11SecurityExt12antiRollBackEPhS0_
        373  174 000FDBD0 _ZN11SecurityExt12isAreaEfoundEP7FileSFI
        374  175 000FDB10 _ZN11SecurityExt12isAreaMfoundEP7FileSFI
        375  176 000FDAE0 _ZN11SecurityExt12isSFIxDeviceEv
        376  177 000FC440 _ZN11SecurityExt12programSFIv1EP8FileDataP7FileSFI5QListI7QStringE
        377  178 001049C0 _ZN11SecurityExt12programSFIv2EP8FileDataP7FileSFI5QListI7QStringES5_S5_S5_
        378  179 000FC430 _ZN11SecurityExt12programSMIv1EP8FileDataS1_
        379  17A 00107050 _ZN11SecurityExt12programSMIv2EP8FileDataS1_
        380  17B 000FDBB0 _ZN11SecurityExt13EraseExtFlashEP7FileSFI
        381  17C 000FC3A0 _ZN11SecurityExt13GetRssVersionEv
        382  17D 000FEF50 _ZN11SecurityExt13GetSecStatev2Ev
        383  17E 00101AE0 _ZN11SecurityExt13authKeyUpdateEP8FileData
        384  17F 000FE050 _ZN11SecurityExt13getRssVersionEj
        385  180 000FC5A0 _ZN11SecurityExt14GetCertificateEPP8FileData
        386  181 00103D80 _ZN11SecurityExt14SetWriteModev2Eh
        387  182 001047B0 _ZN11SecurityExt14checkSfiFinishEv
        388  183 00107C20 _ZN11SecurityExt14fileFusVersionE7QStringRi
        389  184 000FFEC0 _ZN11SecurityExt14firmwareDeleteEv
        390  185 000FDB60 _ZN11SecurityExt14isArea_e_foundEP7FileSFI
        391  186 000FC4B0 _ZN11SecurityExt14progProvATFSSPE7QString
        392  187 000FC3C0 _ZN11SecurityExt14readFusVersionEPhS0_
        393  188 000FF4E0 _ZN11SecurityExt15dislpayFusErrorEj
        394  189 00107500 _ZN11SecurityExt15firmwareUpgradeEjj
        395  18A 000FC540 _ZN11SecurityExt15getMpuProductIDEPPhPKw
        396  18B 00102990 _ZN11SecurityExt15writeUserKeyAESEh
        397  18C 00102470 _ZN11SecurityExt15writeUserKeyMEMEP8FileData
        398  18D 00103A50 _ZN11SecurityExt16ActivateSecurityEv
        399  18E 000FD430 _ZN11SecurityExt16DbgSendSecureCmdEj5QListIjEj
        400  18F 000FC570 _ZN11SecurityExt16getHsmMpuLicenseEiNSt7__cxx1112basic_stringIwSt11char_traitsIwESaIwEEES5_
        401  190 000FE0D0 _ZN11SecurityExt16isRssHashSupportEjj
        402  191 000FC3E0 _ZN11SecurityExt17L4LastSecureWriteE10QByteArray
        403  192 00102EC0 _ZN11SecurityExt18startWirelessStackEv
        404  193 000FC3B0 _ZN11SecurityExt19waitForFWupgradeENDEj
        405  194 000FC3B0 _ZN11SecurityExt19waitForRSSIDLEstateEj
        406  195 000FEC10 _ZN11SecurityExt20WaitForRSSToCompleteEj
        407  196 000FE800 _ZN11SecurityExt21ReconnectAfterResetWbE7QString
        408  197 000FE400 _ZN11SecurityExt21ReconnectAfterResetv2E7QString
        409  198 000FC750 _ZN11SecurityExt21SetSFIFunctionAddressEv
        410  199 000FC7C0 _ZN11SecurityExt21SetSMIFunctionAddressEv
        411  19A 000FE110 _ZN11SecurityExt21decompressCertificateEPhPS0_
        412  19B 000FC510 _ZN11SecurityExt21getMpuChipCertificateENSt7__cxx1112basic_stringIwSt11char_traitsIwESaIwEEES5_
        413  19C 000FEA40 _ZN11SecurityExt22getFusOperatorFileNameER7QString
        414  19D 000FDC60 _ZN11SecurityExt23getFusOperatorAddressesEjR12fusAddresses
        415  19E 000FD0B0 _ZN11SecurityExt24PrepareBufferLoadUserKeyEPhj
        416  19F 000FDC10 _ZN11SecurityExt25getKeyDataPacketAddressesEjR12fusAddresses
        417  1A0 000FD050 _ZN11SecurityExt29PrepareBufferDoryStoreUserKeyEPhj
        418  1A1 000FCFF0 _ZN11SecurityExt30PrepareBufferDoryAuthKeyUpdateEPhj
        419  1A2 000FE5C0 _ZN11SecurityExt30ReconnectAfterResetForStartFusE7QString
        420  1A3 001034B0 _ZN11SecurityExt5AbortEv
        421  1A4 000FF250 _ZN11SecurityExt6RunFusEjj
        422  1A5 0049E450 _ZN11SecurityExt6fusAddE
        423  1A6 000FD100 _ZN11SecurityExt6initOBEv
        424  1A7 000FC480 _ZN11SecurityExt7initSSPEv
        425  1A8 001043D0 _ZN11SecurityExt8SetObCmdE7QString
        426  1A9 000FC420 _ZN11SecurityExt8StartSMIEjj
        427  1AA 00101330 _ZN11SecurityExt8fusStartEPhS0_
        428  1AB 000FC3A0 _ZN11SecurityExt8getUID64Ev
        429  1AC 000FD330 _ZN11SecurityExt9DummyReadEv
        430  1AD 000FC3E0 _ZN11SecurityExt9SetImgHdrE10QByteArray
        431  1AE 000FC410 _ZN11SecurityExt9StartAreaEPhj
        432  1AF 0049E448 _ZN11SecurityExt9fusKeyAddE
        433  1B0 000FC450 _ZN11SecurityExt9writeBlobEP8FileData
        434  1B1 000FCCD0 _ZN11SecurityExtC1EP15TargetInterface
        435  1B2 000FCCD0 _ZN11SecurityExtC2EP15TargetInterface
        436  1B3 000FCC60 _ZN11SecurityExtD0Ev
        437  1B4 000FCC00 _ZN11SecurityExtD1Ev
        438  1B5 000FCC00 _ZN11SecurityExtD2Ev
        439  1B6 001160D0 _ZN12CANInterface10RDP1to0x55Ev
        440  1B7 0011B740 _ZN12CANInterface10disconnectEv
        441  1B8 001160C0 _ZN12CANInterface10isSecureBLEv
        442  1B9 001183C0 _ZN12CANInterface10readBufferEjiPh
        443  1BA 00116060 _ZN12CANInterface10receiveACKEi
        444  1BB 00116050 _ZN12CANInterface10sendBufferE10QByteArray
        445  1BC 00118B50 _ZN12CANInterface11ChangeSpeedEj
        446  1BD 001192F0 _ZN12CANInterface11GetDeviceIDEv
        447  1BE 00116040 _ZN12CANInterface11SendAddressEj
        448  1BF 001191C0 _ZN12CANInterface11getDeviceIDEPt
        449  1C0 00118770 _ZN12CANInterface11getRDPlevelEv
        450  1C1 00117C90 _ZN12CANInterface11receiveDataEPht
        451  1C2 001160D0 _ZN12CANInterface11setBootLockEv
        452  1C3 001182B0 _ZN12CANInterface11synchronizeEv
        453  1C4 001190B0 _ZN12CANInterface12getBLversionEPh
        454  1C5 002C7CC0 _ZN12CANInterface13GetRevisionIDEv
        455  1C6 00118D00 _ZN12CANInterface13ReadUnprotectEv
        456  1C7 001186B0 _ZN12CANInterface13checkRDPlevelEv
        457  1C8 00118DE0 _ZN12CANInterface13programBufferEjPcj12TargetMemory
        458  1C9 00116090 _ZN12CANInterface14GetCertificateEPP8FileData
        459  1CA 00116090 _ZN12CANInterface14programPmicNvmEP8FileData
        460  1CB 001160B0 _ZN12CANInterface14sendSpecialCMDEht
        461  1CC 001160D0 _ZN12CANInterface15TzenRegresssionEv
        462  1CD 001165A0 _ZN12CANInterface15terminalInitCANEv
        463  1CE 0011AF00 _ZN12CANInterface16connect_terminalEv
        464  1CF 001160F0 _ZN12CANInterface16readSspPartitionEPP8FileData
        465  1D0 00119A20 _ZN12CANInterface17displayDeviceInfoEv
        466  1D1 00116020 _ZN12CANInterface17sendSpecialRSSCMDEtPhtb
        467  1D2 00116070 _ZN12CANInterface18InitExtFlashOpenBlEv
        468  1D3 00119310 _ZN12CANInterface18readBufferTerminalEiPh
        469  1D4 00116E90 _ZN12CANInterface19ReconnectAfterResetE7QString
        470  1D5 00119C70 _ZN12CANInterface19displayConnectParamEv
        471  1D6 00117B30 _ZN12CANInterface21programbufferTerminalEPhj
        472  1D7 00116070 _ZN12CANInterface22reconnectAfterResetSfiEv
        473  1D8 001188B0 _ZN12CANInterface5eraseEtPtPc
        474  1D9 00118700 _ZN12CANInterface5read8EjPcj
        475  1DA 001160C0 _ZN12CANInterface5resetEv
        476  1DB 001187E0 _ZN12CANInterface5startEj
        477  1DC 00118640 _ZN12CANInterface6read16EjPcj
        478  1DD 001185D0 _ZN12CANInterface6read32EjPcj
        479  1DE 0011A110 _ZN12CANInterface7connectE7QStringhh
        480  1DF 00116070 _ZN12CANInterface7isUBootEv
        481  1E0 00118220 _ZN12CANInterface8BLGetACKEv
        482  1E1 001160A0 _ZN12CANInterface8getAPnbrEv
        483  1E2 00116780 _ZN12CANInterface8getErrorE11Brg_StatusT
        484  1E3 00116080 _ZN12CANInterface8getPhaseEv
        485  1E4 0011B880 _ZN12CANInterface8readDataEjhiPP8FileDatabi
        486  1E5 00116030 _ZN12CANInterface8sendByteEh
        487  1E6 00117110 _ZN12CANInterface8sendDataEPhh
        488  1E7 00116260 _ZN12CANInterface9BLInitCANE7QString
        489  1E8 00117030 _ZN12CANInterface9reconnectEv
        490  1E9 00116CD0 _ZN12CANInterfaceC1Ei
        491  1EA 00116CD0 _ZN12CANInterfaceC2Ei
        492  1EB 001161C0 _ZN12CANInterfaceD0Ev
        493  1EC 00116120 _ZN12CANInterfaceD1Ev
        494  1ED 00116120 _ZN12CANInterfaceD2Ev
        495  1EE 002C7D00 _ZN12ConfigPeriphC1ERKS_
        496  1EF 002C80B0 _ZN12ConfigPeriphD1Ev
        497  1F0 001265B0 _ZN12I2CInterface10RDP1to0x55Ev
        498  1F1 0012B0E0 _ZN12I2CInterface10connectSfiEv
        499  1F2 0012BF50 _ZN12I2CInterface10disconnectEv
        500  1F3 00126540 _ZN12I2CInterface10isSecureBLEv
        501  1F4 001294E0 _ZN12I2CInterface10readBufferEjiPh
        502  1F5 00126660 _ZN12I2CInterface10receiveACKEi
        503  1F6 00126630 _ZN12I2CInterface10sendBufferE10QByteArray
        504  1F7 001294C0 _ZN12I2CInterface11GetDeviceIDEv
        505  1F8 00126620 _ZN12I2CInterface11SendAddressEj
        506  1F9 00129420 _ZN12I2CInterface11getDeviceIDEPt
        507  1FA 00129A80 _ZN12I2CInterface11getRDPlevelEv
        508  1FB 00127E40 _ZN12I2CInterface11receiveDataEPhh
        509  1FC 00126670 _ZN12I2CInterface11setBootLockEv
        510  1FD 001293B0 _ZN12I2CInterface12getBLversionEPh
        511  1FE 002C81D0 _ZN12I2CInterface13GetRevisionIDEv
        512  1FF 00129C50 _ZN12I2CInterface13ReadUnprotectEv
        513  200 001299C0 _ZN12I2CInterface13checkRDPlevelEv
        514  201 00128EF0 _ZN12I2CInterface13programBufferEjPcj12TargetMemory
        515  202 0012C1C0 _ZN12I2CInterface14GetCertificateEPP8FileData
        516  203 00126640 _ZN12I2CInterface14programPmicNvmEP8FileData
        517  204 00129280 _ZN12I2CInterface14sendSpecialCMDEht
        518  205 00126550 _ZN12I2CInterface15TzenRegresssionEv
        519  206 0012A880 _ZN12I2CInterface16connect_terminalEv
        520  207 00127000 _ZN12I2CInterface16enterConsoleModeE7QString
        521  208 001296F0 _ZN12I2CInterface16readSspPartitionEPP8FileData
        522  209 0012AE90 _ZN12I2CInterface17displayDeviceInfoEv
        523  20A 0012C640 _ZN12I2CInterface17sendSpecialRSSCMDEtPhtb
        524  20B 00126530 _ZN12I2CInterface18InitExtFlashOpenBlEv
        525  20C 00129AF0 _ZN12I2CInterface18readBufferTerminalEPhi
        526  20D 00127190 _ZN12I2CInterface19ReconnectAfterResetE7QString
        527  20E 001268B0 _ZN12I2CInterface19displayConnectParamEv
        528  20F 00129DA0 _ZN12I2CInterface22receiveDataWithTimeoutEPhht
        529  210 0012B6F0 _ZN12I2CInterface22reconnectAfterResetSfiEv
        530  211 00128BB0 _ZN12I2CInterface5eraseEtPtPc
        531  212 00129A10 _ZN12I2CInterface5read8EjPcj
        532  213 00126540 _ZN12I2CInterface5resetEv
        533  214 00128A80 _ZN12I2CInterface5startEj
        534  215 00129680 _ZN12I2CInterface6read16EjPcj
        535  216 00129610 _ZN12I2CInterface6read32EjPcj
        536  217 0012B880 _ZN12I2CInterface7connectE7QStringhh
        537  218 00129B50 _ZN12I2CInterface7isUBootEv
        538  219 001288C0 _ZN12I2CInterface8BLGetACKEi
        539  21A 00126650 _ZN12I2CInterface8getAPnbrEv
        540  21B 00126AB0 _ZN12I2CInterface8getErrorE11Brg_StatusT
        541  21C 0012C080 _ZN12I2CInterface8getPhaseEv
        542  21D 0012C3D0 _ZN12I2CInterface8readDataEjhiPP8FileDatabi
        543  21E 00126610 _ZN12I2CInterface8sendByteEh
        544  21F 00127430 _ZN12I2CInterface8sendDataEPhh
        545  220 001267E0 _ZN12I2CInterface9BLInitI2CEv
        546  221 00127350 _ZN12I2CInterface9reconnectEv
        547  222 00127010 _ZN12I2CInterfaceC1Ei
        548  223 00127010 _ZN12I2CInterfaceC2Ei
        549  224 00126740 _ZN12I2CInterfaceD0Ev
        550  225 001266A0 _ZN12I2CInterfaceD1Ev
        551  226 001266A0 _ZN12I2CInterfaceD2Ev
        552  227 000CA490 _ZN12IpInstallHsm10getLicenseEP8FileDataS1_
        553  228 000CA660 _ZN12IpInstallHsm10prepareHsmEj
        554  229 000CA570 _ZN12IpInstallHsm15programIPModuleEP7FileSMU
        555  22A 000CAD90 _ZN12IpInstallHsm18concatinateLicenseEP7FileSMUP8FileData
        556  22B 000CB140 _ZN12IpInstallHsm28ipModuleInstallUpdateManagerE7QStringS0_jjbj
        557  22C 000CAB10 _ZN12IpInstallHsm5resetEv
        558  22D 000CA710 _ZN12IpInstallHsm9getCertifEP8FileData
        559  22E 000CB000 _ZN12IpInstallHsmC1EbbP15TargetInterfacePi
        560  22F 000CB000 _ZN12IpInstallHsmC2EbbP15TargetInterfacePi
        561  230 000CA3F0 _ZN12IpInstallHsmD1Ev
        562  231 000CA3F0 _ZN12IpInstallHsmD2Ev
        563  232 00434930 _ZN12QMetaTypeId2I7QStringE11nameAsArrayE
        564  233 00434940 _ZN12QMetaTypeId2IiE11nameAsArrayE
        565  234 002C8210 _ZN12Register_SVDC1ERKS_
        566  235 002C8450 _ZN12Register_SVDD1Ev
        567  236 000D7DF0 _ZN12SPIInterface10RDP1to0x55Ev
        568  237 000DDA90 _ZN12SPIInterface10connectSfiEv
        569  238 000DCD10 _ZN12SPIInterface10disconnectEv
        570  239 000D7D50 _ZN12SPIInterface10isSecureBLEv
        571  23A 000DB470 _ZN12SPIInterface10readBufferEjiPh
        572  23B 000D88B0 _ZN12SPIInterface10receiveACKEi
        573  23C 000D86F0 _ZN12SPIInterface10receiveAckEi
        574  23D 000DA820 _ZN12SPIInterface10sendBufferE10QByteArray
        575  23E 000DBF20 _ZN12SPIInterface11GetDeviceIDEv
        576  23F 000DA4E0 _ZN12SPIInterface11SendAddressEj
        577  240 000DBE40 _ZN12SPIInterface11getDeviceIDEPt
        578  241 000DBC40 _ZN12SPIInterface11getRDPlevelEv
        579  242 000DAA10 _ZN12SPIInterface11receiveDataEPhji
        580  243 000D7E50 _ZN12SPIInterface11setBootLockEv
        581  244 000DA470 _ZN12SPIInterface11synchronizeEv
        582  245 000DBF40 _ZN12SPIInterface12getBLversionEPh
        583  246 002C8550 _ZN12SPIInterface13GetRevisionIDEv
        584  247 000DA3A0 _ZN12SPIInterface13ReadUnprotectEv
        585  248 000DB6F0 _ZN12SPIInterface13checkRDPlevelEv
        586  249 000D9AA0 _ZN12SPIInterface13programBufferEjPcj12TargetMemory
        587  24A 000DE550 _ZN12SPIInterface14GetCertificateEPP8FileData
        588  24B 000D7D80 _ZN12SPIInterface14programPmicNvmEP8FileData
        589  24C 000DA550 _ZN12SPIInterface14sendSpecialCMDEht
        590  24D 000D7D90 _ZN12SPIInterface15TzenRegresssionEv
        591  24E 000DC470 _ZN12SPIInterface15connectTerminalEv
        592  24F 000DB780 _ZN12SPIInterface16readSspPartitionEPP8FileData
        593  250 000DCE40 _ZN12SPIInterface17displayDeviceInfoEv
        594  251 000DEAE0 _ZN12SPIInterface17sendSpecialRSSCMDEtPhtb
        595  252 000D7D40 _ZN12SPIInterface18InitExtFlashOpenBlEv
        596  253 000D8DD0 _ZN12SPIInterface19ReconnectAfterResetE7QString
        597  254 000D88D0 _ZN12SPIInterface19displayConnectParamEv
        598  255 000D8550 _ZN12SPIInterface19receiveAckMassEraseEi
        599  256 000DC020 _ZN12SPIInterface21getDebugInterfaceInfoEv
        600  257 000DE410 _ZN12SPIInterface22reconnectAfterResetSfiEv
        601  258 000D8DD0 _ZN12SPIInterface24ReconnectAfterResetViperE7QString
        602  259 000D9DD0 _ZN12SPIInterface5eraseEtPtPc
        603  25A 000DBBD0 _ZN12SPIInterface5read8EjPcj
        604  25B 000D7E80 _ZN12SPIInterface5resetEv
        605  25C 000DA210 _ZN12SPIInterface5startEj
        606  25D 000DB680 _ZN12SPIInterface6read16EjPcj
        607  25E 000DB610 _ZN12SPIInterface6read32EjPcj
        608  25F 000DD0A0 _ZN12SPIInterface7connectE7QStringhh
        609  260 000DBCF0 _ZN12SPIInterface7isUBootEv
        610  261 000D7D60 _ZN12SPIInterface8getAPnbrEv
        611  262 000D8030 _ZN12SPIInterface8getErrorE11Brg_StatusT
        612  263 000D7D70 _ZN12SPIInterface8getPhaseEv
        613  264 000DE7F0 _ZN12SPIInterface8readDataEjhiPP8FileDatabi
        614  265 000DA4B0 _ZN12SPIInterface8sendByteEh
        615  266 000D90B0 _ZN12SPIInterface8sendDataEPhtPt
        616  267 000D8F90 _ZN12SPIInterface9reconnectEv
        617  268 000D8C70 _ZN12SPIInterfaceC1Ei
        618  269 000D8C70 _ZN12SPIInterfaceC2Ei
        619  26A 000D7F90 _ZN12SPIInterfaceD0Ev
        620  26B 000D7EF0 _ZN12SPIInterfaceD1Ev
        621  26C 000D7EF0 _ZN12SPIInterfaceD2Ev
        622  26D 0049CCC0 _ZN12USBInterface10DeviceListE
        623  26E 0009DDC0 _ZN12USBInterface10MCUReadMemEjhiPP8FileDatab
        624  26F 000A2320 _ZN12USBInterface10MPUReadMemEjhiPP8FileDatab
        625  270 0009C200 _ZN12USBInterface10RDP1to0x55Ev
        626  271 0009AF80 _ZN12USBInterface10disconnectEv
        627  272 0009B090 _ZN12USBInterface10isSecureBLEv
        628  273 0009AF40 _ZN12USBInterface10receiveACKEi
        629  274 0009AF50 _ZN12USBInterface10sendBufferE10QByteArray
        630  275 00092AE0 _ZN12USBInterface11DfuManifestEP20libusb_device_handleRjj
        631  276 0009E200 _ZN12USBInterface11GetDeviceIDEv
        632  277 00097D50 _ZN12USBInterface11GetDeviceIdEP20libusb_device_handleSt3mapINSt7__cxx1112basic_stringIcSt11char_traitsIcESaIcEEESt6vectorI9SectorInfSaISA_EESt4lessIS8_ESaISt4pairIKS8_SC_EEEh
        633  278 0009FC70 _ZN12USBInterface11LaunchSecBlEv
        634  279 0009AF60 _ZN12USBInterface11SendAddressEj
        635  27A 000926F0 _ZN12USBInterface11U_BootStartEP20libusb_device_handlejt
        636  27B 0009B050 _ZN12USBInterface11getRDPlevelEv
        637  27C 0009C3C0 _ZN12USBInterface11setBootLockEv
        638  27D 0049CC60 _ZN12USBInterface12mpuDeviceCpuE
        639  27E 00092950 _ZN12USBInterface13DfuReadMemoryEP20libusb_device_handletPhttPt
        640  27F 000923D0 _ZN12USBInterface13DfuseLeaveDFUEP20libusb_device_handlett
        641  280 00095270 _ZN12USBInterface13GetDeviceIdOBEP20libusb_device_handleSt3mapINSt7__cxx1112basic_stringIcSt11char_traitsIcESaIcEEESt6vectorI9SectorInfSaISA_EESt4lessIS8_ESaISt4pairIKS8_SC_EEE
        642  281 002C8590 _ZN12USBInterface13GetRevisionIDEv
        643  282 00093C00 _ZN12USBInterface13HashSysMemoryEP20libusb_device_handle
        644  283 0009B680 _ZN12USBInterface13MCUProgramMemEjPPcj12TargetMemory6Resume
        645  284 000A1D20 _ZN12USBInterface13MPUProgramMemEjPPcj12TargetMemory6Resume
        646  285 0009C020 _ZN12USBInterface13ReadUnprotectEv
        647  286 000A0400 _ZN12USBInterface13checkRDPlevelEv
        648  287 0008FA90 _ZN12USBInterface13dfu_get_stateEP20libusb_device_handlehtP10dfu_status
        649  288 0049CC20 _ZN12USBInterface13mpuDeviceNameE
        650  289 0049CC80 _ZN12USBInterface13mpuDeviceTypeE
        651  28A 0009AFA0 _ZN12USBInterface13programBufferEjPcj12TargetMemory
        652  28B 0008FE90 _ZN12USBInterface14DfuResetDeviceEP20libusb_device_handle
        653  28C 00092520 _ZN12USBInterface14DfuWriteMemoryEP20libusb_device_handletPhtt
        654  28D 00092100 _ZN12USBInterface14DfuseFullEraseEP20libusb_device_handlet
        655  28E 00091DE0 _ZN12USBInterface14DfusePageEraseEP20libusb_device_handlejt
        656  28F 00098110 _ZN12USBInterface14DiscoverDeviceEP13libusb_deviceRP9DFUDevicePi
        657  290 0009DAA0 _ZN12USBInterface14GetCertificateEPP8FileData
        658  291 00097090 _ZN12USBInterface14GetDeviceIdI20EP20libusb_device_handle
        659  292 00090600 _ZN12USBInterface14dfu_get_statusEP20libusb_device_handlehjP10dfu_status
        660  293 0008FB00 _ZN12USBInterface14ghostdfu_abortEP20libusb_device_handlehtP10dfu_status
        661  294 0009B0C0 _ZN12USBInterface14programPmicNvmEP8FileData
        662  295 0009D6D0 _ZN12USBInterface14sendSpecialCMDEht
        663  296 000912A0 _ZN12USBInterface15DfuSeReadMemoryEP20libusb_device_handletPhtt
        664  297 00099B60 _ZN12USBInterface15ReconnectDeviceEPP9DFUDevicej
        665  298 0009C590 _ZN12USBInterface15TzenRegresssionEv
        666  299 00090A20 _ZN12USBInterface16CheckDnLoadStateEP20libusb_device_handleht
        667  29A 000A0710 _ZN12USBInterface16CheckSectorExistERjtSt3mapINSt7__cxx1112basic_stringIcSt11char_traitsIcESaIcEEESt6vectorI9SectorInfSaIS9_EESt4lessIS7_ESaISt4pairIKS7_SB_EEE
        668  29B 00090BD0 _ZN12USBInterface16CheckUpLoadStateEP20libusb_device_handleht
        669  29C 00091460 _ZN12USBInterface16DfuSeWriteMemoryEP20libusb_device_handletPhtt
        670  29D 00091A40 _ZN12USBInterface16DfusePageEraseH7EP20libusb_device_handlejt
        671  29E 0009A450 _ZN12USBInterface16GetUSBDeviceListEtt
        672  29F 0009FAA0 _ZN12USBInterface16SecBlReenumerateEv
        673  2A0 00090800 _ZN12USBInterface16dfu_clear_statusEP20libusb_device_handlehtP10dfu_status
        674  2A1 0009B0A0 _ZN12USBInterface16readSspPartitionEPP8FileData
        675  2A2 000927C0 _ZN12USBInterface17DfuWriteMemoryMPUEP20libusb_device_handletPhtt
        676  2A3 00093FB0 _ZN12USBInterface17FreeUSBDeviceListERSt6vectorIP9DFUDeviceSaIS2_EE
        677  2A4 00090DF0 _ZN12USBInterface17SetAddressPointerEP20libusb_device_handlejt
        678  2A5 0009F220 _ZN12USBInterface17U_BootReenumerateEv
        679  2A6 0049CC40 _ZN12USBInterface17mpuDeviceRevisionE
        680  2A7 0009AF20 _ZN12USBInterface17sendSpecialRSSCMDEtPhtb
        681  2A8 000907D0 _ZN12USBInterface18CheckManifestStateEP20libusb_device_handleht
        682  2A9 00091720 _ZN12USBInterface18DfuSeWriteOBMemoryEP20libusb_device_handletPhtt
        683  2AA 000A1450 _ZN12USBInterface18GetAltSettingIndexEh
        684  2AB 00093240 _ZN12USBInterface18GetDFUDeviceHandleEP13libusb_devicePih
        685  2AC 0009CA90 _ZN12USBInterface18InitExtFlashOpenBlEv
        686  2AD 0009BF60 _ZN12USBInterface18UsbControlTransferEP20libusb_device_handlehhttPhtj
        687  2AE 00093570 _ZN12USBInterface19FreeDFUDeviceHandleERP20libusb_device_handle
        688  2AF 00095D70 _ZN12USBInterface19GetAlternateSettingEP20libusb_device_handleP24libusb_config_descriptorRSt3mapINSt7__cxx1112basic_stringIcSt11char_traitsIcESaIcEEESt6vectorI9SectorInfSaISC_EESt4lessISA_ESaISt4pairIKSA_SE_EEERSB_ISA_SaISA_EERSE_
        689  2B0 000976F0 _ZN12USBInterface19GetDeviceIDiProductEP20libusb_device_handleh
        690  2B1 000945B0 _ZN12USBInterface19GetDeviceRevisionIDEP20libusb_device_handlet
        691  2B2 0009C850 _ZN12USBInterface19GetStringDescriptorB5cxx11EP20libusb_device_handlehj
        692  2B3 0009B150 _ZN12USBInterface19ReconnectAfterResetE7QString
        693  2B4 0009EDC0 _ZN12USBInterface19display_alt_settingEP9DFUDevice
        694  2B5 0009D1F0 _ZN12USBInterface19display_descriptorsEP9DFUDevice
        695  2B6 00098E40 _ZN12USBInterface19ghostDiscoverDeviceEP13libusb_deviceRP9DFUDevice
        696  2B7 0008F950 _ZN12USBInterface19ghostdfu_get_statusEP20libusb_device_handlehtP10dfu_status
        697  2B8 0009C970 _ZN12USBInterface19initExtMemUsbOpenBlEv
        698  2B9 0009E310 _ZN12USBInterface20eraseExtMemUsbOpenBlEtPt
        699  2BA 0008FDE0 _ZN12USBInterface20ghostDfuSeReadMemoryEP20libusb_device_handletPhtt
        700  2BB 00091040 _ZN12USBInterface21DownloadSecureCommandEP20libusb_device_handlePhtt
        701  2BC 00095720 _ZN12USBInterface21GetDeviceNameiProductEP20libusb_device_handleh
        702  2BD 0009C760 _ZN12USBInterface21get_string_descriptorEP20libusb_device_handlehPhj
        703  2BE 0008FBA0 _ZN12USBInterface21ghostCheckDnLoadStateEP20libusb_device_handleht
        704  2BF 0008FC50 _ZN12USBInterface21ghostCheckUpLoadStateEP20libusb_device_handleht
        705  2C0 0009A9D0 _ZN12USBInterface21ghostGetUSBDeviceListEtt
        706  2C1 0008F9F0 _ZN12USBInterface21ghostdfu_clear_statusEP20libusb_device_handlehtP10dfu_status
        707  2C2 0009AFA0 _ZN12USBInterface21programBufferTerminalEjPcj12TargetMemory
        708  2C3 0049CCA0 _ZN12USBInterface21usbSerialNumberGadgetE
        709  2C4 0009CCE0 _ZN12USBInterface22MPUStartAfterWriteBlobEj
        710  2C5 0009BDB0 _ZN12USBInterface22USBReconnectAfterResetEi
        711  2C6 0008FD00 _ZN12USBInterface22ghostSetAddressPointerEP20libusb_device_handlejt
        712  2C7 0009AF70 _ZN12USBInterface22reconnectAfterResetSfiEv
        713  2C8 000935A0 _ZN12USBInterface23GetFunctionalDescriptorEP24libusb_config_descriptor
        714  2C9 0009C7C0 _ZN12USBInterface23StringDesc_to_StdStringB5cxx11EPhi
        715  2CA 000934E0 _ZN12USBInterface23ghostGetDFUDeviceHandleEP13libusb_device
        716  2CB 0009CBC0 _ZN12USBInterface24massEraseExtMemUsbOpenBlEv
        717  2CC 0009CD60 _ZN12USBInterface25display_device_descriptorE24libusb_device_descriptor
        718  2CD 0009D280 _ZN12USBInterface26display_device_informationEP9DFUDeviceb
        719  2CE 0009D000 _ZN12USBInterface28display_interface_descriptorEPK27libusb_interface_descriptorh
        720  2CF 00090B10 _ZN12USBInterface29DownloadSecureCommandNOverifyEP20libusb_device_handlePhtt
        721  2D0 0009D120 _ZN12USBInterface29display_functional_descriptorEP21functional_descriptor
        722  2D1 0009CF00 _ZN12USBInterface32display_configuration_descriptorEP24libusb_config_descriptor
        723  2D2 003A9114 _ZN12USBInterface4iPIDE
        724  2D3 003A9110 _ZN12USBInterface4iVIDE
        725  2D4 000A0AB0 _ZN12USBInterface5eraseEtPtPc
        726  2D5 0009B090 _ZN12USBInterface5resetEv
        727  2D6 0009B010 _ZN12USBInterface5startEj
        728  2D7 0009B280 _ZN12USBInterface6read32EjPcj
        729  2D8 0009FC90 _ZN12USBInterface7connectE7QStringhh
        730  2D9 0009B030 _ZN12USBInterface7isUBootEv
        731  2DA 0009B320 _ZN12USBInterface8MCUStartEj
        732  2DB 0009F9B0 _ZN12USBInterface8MPUStartEj
        733  2DC 000A26B0 _ZN12USBInterface8eraseIAPEjj
        734  2DD 000A15E0 _ZN12USBInterface8getPhaseEv
        735  2DE 0009CAE0 _ZN12USBInterface8readDataEjhiPP8FileDatabi
        736  2DF 0009AF30 _ZN12USBInterface8sendByteEh
        737  2E0 00090C90 _ZN12USBInterface9DfuDetachEP20libusb_device_handlet
        738  2E1 00090910 _ZN12USBInterface9dfu_abortEP20libusb_device_handlehtP10dfu_status
        739  2E2 0009AF70 _ZN12USBInterface9reconnectEv
        740  2E3 0009D590 _ZN12USBInterfaceC1Ev
        741  2E4 0009D590 _ZN12USBInterfaceC2Ev
        742  2E5 0009B600 _ZN12USBInterfaceD0Ev
        743  2E6 0009B580 _ZN12USBInterfaceD1Ev
        744  2E7 0009B580 _ZN12USBInterfaceD2Ev
        745  2E8 002C8A60 _ZN13GenericDeviceD1Ev
        746  2E9 00163440 _ZN13ScriptManager10execScriptE7QString
        747  2EA 00159530 _ZN13ScriptManagerC1EP10DisplayMngP15TargetInterfaceP11FileManagerP10CliManager
        748  2EB 00159530 _ZN13ScriptManagerC2EP10DisplayMngP15TargetInterfaceP11FileManagerP10CliManager
        749  2EC 00159570 _ZN13ScriptManagerD1Ev
        750  2ED 00159570 _ZN13ScriptManagerD2Ev
        751  2EE 00251CD0 _ZN13SigfoxManager21saveSigFoxCertificateE7QString
        752  2EF 00252840 _ZN13SigfoxManager21writeCredentialSigfoxE7QStringi
        753  2F0 00252C80 _ZN13SigfoxManager28checkSaveSigfoxCmdParametersE5QListI7QStringE
        754  2F1 002530F0 _ZN13SigfoxManager29checkWriteSigfoxCmdParametersE5QListI7QStringE
        755  2F2 002521A0 _ZN13SigfoxManager8readFileEPcRiRjS1_PP8FileData
        756  2F3 00253510 _ZN13SigfoxManagerC1E5QListI7QStringEP10DisplayMngP15TargetInterface11FileManagerb
        757  2F4 00253510 _ZN13SigfoxManagerC2E5QListI7QStringEP10DisplayMngP15TargetInterface11FileManagerb
        758  2F5 00251CC0 _ZN13SigfoxManagerD1Ev
        759  2F6 00251CC0 _ZN13SigfoxManagerD2Ev
        760  2F7 002C8D10 _ZN13StorageConfigC1ERKS_
        761  2F8 002C8E60 _ZN13StorageConfigD1Ev
        762  2F9 002C8F40 _ZN13StoragePeriphC1ERKS_
        763  2FA 002C9160 _ZN13StoragePeriphD1Ev
        764  2FB 0010A830 _ZN13USBSSPSecuExt10programSspENSt7__cxx1112basic_stringIwSt11char_traitsIwESaIwEEES5_S5_iiS5_
        765  2FC 00107DC0 _ZN13USBSSPSecuExt11authKeyLockEv
        766  2FD 00107DF0 _ZN13USBSSPSecuExt11getRSSstateEPhS0_
        767  2FE 00107DC0 _ZN13USBSSPSecuExt11getkeyIndexEv
        768  2FF 00107E00 _ZN13USBSSPSecuExt13authKeyUpdateEP8FileData
        769  300 0010BFF0 _ZN13USBSSPSecuExt14GetCertificateEPP8FileData
        770  301 00107DC0 _ZN13USBSSPSecuExt14firmwareDeleteEv
        771  302 00108110 _ZN13USBSSPSecuExt14progProvATFSSPE7QString
        772  303 00109610 _ZN13USBSSPSecuExt14programSspRSSeE7QStringS0_S0_iS0_
        773  304 00107DE0 _ZN13USBSSPSecuExt15firmwareUpgradeEjj
        774  305 001082D0 _ZN13USBSSPSecuExt15getMpuProductIDEPPhPKw
        775  306 00107E10 _ZN13USBSSPSecuExt15writeUserKeyAESEh
        776  307 00107E00 _ZN13USBSSPSecuExt15writeUserKeyMEMEP8FileData
        777  308 0010C6E0 _ZN13USBSSPSecuExt16getHsmMpuLicenseEiNSt7__cxx1112basic_stringIwSt11char_traitsIwESaIwEEES5_
        778  309 00107DC0 _ZN13USBSSPSecuExt18startWirelessStackEv
        779  30A 00107DD0 _ZN13USBSSPSecuExt19waitForFWupgradeENDEj
        780  30B 00107DD0 _ZN13USBSSPSecuExt19waitForRSSIDLEstateEj
        781  30C 00108AC0 _ZN13USBSSPSecuExt21getMpuChipCertificateENSt7__cxx1112basic_stringIwSt11char_traitsIwESaIwEEES5_
        782  30D 00107F60 _ZN13USBSSPSecuExt7initSSPEv
        783  30E 00107DC0 _ZN13USBSSPSecuExt8getUID64Ev
        784  30F 00107E50 _ZN13USBSSPSecuExt9writeBlobEP8FileData
        785  310 00108270 _ZN13USBSSPSecuExtC1EP15TargetInterface
        786  311 00108270 _ZN13USBSSPSecuExtC2EP15TargetInterface
        787  312 001080D0 _ZN13USBSSPSecuExtD0Ev
        788  313 00107E20 _ZN13USBSSPSecuExtD1Ev
        789  314 00107E20 _ZN13USBSSPSecuExtD2Ev
        790  315 0003FA80 _ZN13UartInterface10RDP1to0x55Ev
        791  316 000470F0 _ZN13UartInterface10connectSfiEv
        792  317 0003FAE0 _ZN13UartInterface10disconnectEv
        793  318 0003FA10 _ZN13UartInterface10isSecureBLEv
        794  319 00043310 _ZN13UartInterface10receiveACKEi
        795  31A 00041DD0 _ZN13UartInterface10sendBufferE10QByteArray
        796  31B 00045FE0 _ZN13UartInterface11GetDeviceIDEv
        797  31C 00041BD0 _ZN13UartInterface11SendAddressEj
        798  31D 00041770 _ZN13UartInterface11eraseMemoryEhPh
        799  31E 0003FD40 _ZN13UartInterface11getRDPlevelEv
        800  31F 000404A0 _ZN13UartInterface11sendHexCodeEPhi
        801  320 0003FB20 _ZN13UartInterface11setBootLockEv
        802  321 002C92D0 _ZN13UartInterface13GetRevisionIDEv
        803  322 00046020 _ZN13UartInterface13ReadUnprotectEv
        804  323 000446B0 _ZN13UartInterface13checkRDPlevelEv
        805  324 000413A0 _ZN13UartInterface13extendedEraseEtPt
        806  325 00042300 _ZN13UartInterface13programBufferEjPcj12TargetMemory
        807  326 000461F0 _ZN13UartInterface13readCmdStatusEhPhS0_
        808  327 0004A430 _ZN13UartInterface14GetCertificateEPP8FileData
        809  328 000407E0 _ZN13UartInterface14InitConnectionEv
        810  329 0003FCB0 _ZN13UartInterface14programPmicNvmEP8FileData
        811  32A 000438E0 _ZN13UartInterface14readDataBufferEijPc
        812  32B 0003FB40 _ZN13UartInterface14sendSpecialCMDEht
        813  32C 00047770 _ZN13UartInterface14simpleReadDataEjPci
        814  32D 00043C70 _ZN13UartInterface14specialCommandEttPjPhS1_j
        815  32E 0003FA20 _ZN13UartInterface15TzenRegresssionEv
        816  32F 00040020 _ZN13UartInterface15setPortSettingsEv
        817  330 00040500 _ZN13UartInterface16connect_terminalE7QString
        818  331 0004F310 _ZN13UartInterface16enterConsoleModeE7QString
        819  332 00044430 _ZN13UartInterface16readDataTerminalEi
        820  333 0004A0A0 _ZN13UartInterface16readSspPartitionEPP8FileData
        821  334 00046550 _ZN13UartInterface17getBootRomVersionEv
        822  335 00048720 _ZN13UartInterface17isTransparentModeE7QString
        823  336 00048030 _ZN13UartInterface17sendSpecialRSSCMDEtPhtb
        824  337 00047CD0 _ZN13UartInterface18InitExtFlashOpenBlEv
        825  338 00048F00 _ZN13UartInterface19ReconnectAfterResetE7QString
        826  339 0004AF50 _ZN13UartInterface19eraseExtFlashOpenBlEtPt
        827  33A 0004BD20 _ZN13UartInterface19otpProvisionnigLockE7QStringj
        828  33B 00047630 _ZN13UartInterface22reconnectAfterResetSfiEv
        829  33C 000403A0 _ZN13UartInterface22robustWaitForReadyReadEi
        830  33D 000443A0 _ZN13UartInterface23massEraseExtFlashOpenBlEv
        831  33E 0049CB58 _ZN13UartInterface31previousNbBufferOfChenckBigFileE
        832  33F 0004B9D0 _ZN13UartInterface5eraseEtPtPc
        833  340 0003FA10 _ZN13UartInterface5resetEv
        834  341 00049100 _ZN13UartInterface5startEj
        835  342 00047CC0 _ZN13UartInterface6read32EjPcj
        836  343 00040480 _ZN13UartInterface6setDtrEb
        837  344 00040490 _ZN13UartInterface6setRtsEb
        838  345 0004A600 _ZN13UartInterface7RcvDataEPP8FileData
        839  346 000461E0 _ZN13UartInterface7ReceiveEi
        840  347 000469A0 _ZN13UartInterface7connectE7QStringhh
        841  348 00045B20 _ZN13UartInterface7isUBootEv
        842  349 00040440 _ZN13UartInterface8checksumE10QByteArray
        843  34A 00049C00 _ZN13UartInterface8getPhaseEv
        844  34B 000456F0 _ZN13UartInterface8readDataEij
        845  34C 0004A780 _ZN13UartInterface8readDataEjhiPP8FileDatabi
        846  34D 00049710 _ZN13UartInterface8sendByteEh
        847  34E 00043300 _ZN13UartInterface8sendDataE10QByteArray
        848  34F 00041FD0 _ZN13UartInterface8sendtestEj
        849  350 00045C80 _ZN13UartInterface9getChipIDEv
        850  351 00041090 _ZN13UartInterface9reconnectEv
        851  352 00041170 _ZN13UartInterface9sendBytesE10QByteArray
        852  353 00048C00 _ZN13UartInterfaceC1Ev
        853  354 00048C00 _ZN13UartInterfaceC2Ev
        854  355 0003FFF0 _ZN13UartInterfaceD0Ev
        855  356 0003FF00 _ZN13UartInterfaceD1Ev
        856  357 0003FF00 _ZN13UartInterfaceD2Ev
        857  358 002C9310 _ZN14ConfigCategoryC1ERKS_
        858  359 002C9540 _ZN14ConfigurationsD1Ev
        859  35A 0005CED0 _ZN14DebugInterface10RDP1to0x55Ev
        860  35B 000679E0 _ZN14DebugInterface10editMemoryEjPhj
        861  35C 000607D0 _ZN14DebugInterface10initDeviceEv
        862  35D 0006DD60 _ZN14DebugInterface11eraseMemoryEjj
        863  35E 000608A0 _ZN14DebugInterface11getDeviceIDEPt
        864  35F 0005CED0 _ZN14DebugInterface11setBootLockEv
        865  360 0006A0A0 _ZN14DebugInterface12binarySearchEjjjP8FileTypej
        866  361 00060CC0 _ZN14DebugInterface12decodeRegNumEi
        867  362 0005FF20 _ZN14DebugInterface12getTZENValueEv
        868  363 0005E300 _ZN14DebugInterface12setResetModeE7QString
        869  364 000635D0 _ZN14DebugInterface13GetRevisionIDEv
        870  365 00064DB0 _ZN14DebugInterface13ReadUnprotectEv
        871  366 00066830 _ZN14DebugInterface13eraseDebuggerEtPtPc
        872  367 00066740 _ZN14DebugInterface13programBufferEjPcj12TargetMemory
        873  368 0005CEF0 _ZN14DebugInterface13readCortexRegEP7CoreReg
        874  369 0005FFA0 _ZN14DebugInterface14getLockBLValueEv
        875  36A 002C96A0 _ZN14DebugInterface14programPmicNvmEP8FileData
        876  36B 000608C0 _ZN14DebugInterface14runApplicationEjj
        877  36C 0005FD50 _ZN14DebugInterface14useFlashLoaderEv
        878  36D 0005D600 _ZN14DebugInterface14writeCortexRegEP7CoreReg
        879  36E 0005CED0 _ZN14DebugInterface15TzenRegresssionEv
        880  36F 000694D0 _ZN14DebugInterface15compareCheckSumEjjPjj
        881  370 00060980 _ZN14DebugInterface15readMCURegisterEjPj
        882  371 00063F10 _ZN14DebugInterface16eraseFlashLoaderEtPtPc
        883  372 00063320 _ZN14DebugInterface16getFlashChecksumEiiPi
        884  373 0005FA90 _ZN14DebugInterface16getFrequencyListEPjPh
        885  374 0005FEF0 _ZN14DebugInterface16getRdpLevelValueEv
        886  375 0005E3E0 _ZN14DebugInterface17hardFaultAnalyserEPP12faultBitName
        887  376 0005D910 _ZN14DebugInterface17isChecksumPresentEj
        888  377 0005F730 _ZN14DebugInterface17setConnectionModeE7QString
        889  378 0005DA50 _ZN14DebugInterface18isFileExceedMemoryEjj
        890  379 00065920 _ZN14DebugInterface18programBufferDebugEjPcj12TargetMemory
        891  37A 00063160 _ZN14DebugInterface19ReconnectAfterResetE7QString
        892  37B 0006BFC0 _ZN14DebugInterface19eraseMemoryDebuggerEjj
        893  37C 00069E70 _ZN14DebugInterface20getBinarySearchParamERjS0_S0_S0_jj
        894  37D 0005FF60 _ZN14DebugInterface20getProductStateValueEv
        895  37E 0006AFE0 _ZN14DebugInterface20getTableOfSectorSizeEjj
        896  37F 0005F8D0 _ZN14DebugInterface20sectorEraseHighCycleEjj
        897  380 0005FFF0 _ZN14DebugInterface21getDebugInterfaceTypeEi
        898  381 00061050 _ZN14DebugInterface21getSectorSizeCheckSumEj
        899  382 00062510 _ZN14DebugInterface22IdentifyDebugInterfaceEi
        900  383 0006CCF0 _ZN14DebugInterface22eraseMemoryFlashLoaderEjj
        901  384 00065450 _ZN14DebugInterface22verifyDownloadCheckSumEP8FileType
        902  385 0005E180 _ZN14DebugInterface23detectNbrDebugInterfaceEPi
        903  386 000600E0 _ZN14DebugInterface23getDeviceIDFromRomTableEPt
        904  387 00065FF0 _ZN14DebugInterface24programBufferFlashLoaderEjPcj12TargetMemory
        905  388 00069BB0 _ZN14DebugInterface25compareLeftMemoryChecksumEjjjjP8FileTypejjR5QListIjEj
        906  389 00069900 _ZN14DebugInterface26compareRightMemoryChecksumEjjjjjjP8FileTypejjR5QListIjEj
        907  38A 000619F0 _ZN14DebugInterface29getStartSectorAddressCheckSumEj
        908  38B 000678C0 _ZN14DebugInterface5eraseEtPtPc
        909  38C 00060AC0 _ZN14DebugInterface5startEj
        910  38D 002C96B0 _ZN14DebugInterface7isUBootEv
        911  38E 00060C10 _ZN14DebugInterface7readRegEiPj
        912  38F 00060E10 _ZN14DebugInterface8checkSumEjjPj
        913  390 0005CE70 _ZN14DebugInterface8getAPnbrEv
        914  391 002C96C0 _ZN14DebugInterface8getPhaseEv
        915  392 0005CE60 _ZN14DebugInterface8read32NSEjPcj
        916  393 00068B30 _ZN14DebugInterface8readDataEjhiPP8FileDatabi
        917  394 00060CF0 _ZN14DebugInterface8resetSAUEj
        918  395 00060010 _ZN14DebugInterface9getCoreIDEPj
        919  396 00062390 _ZN14DebugInterfaceC1Ev
        920  397 00062390 _ZN14DebugInterfaceC2Ev
        921  398 0005E150 _ZN14DebugInterfaceD0Ev
        922  399 0005DFF0 _ZN14DebugInterfaceD1Ev
        923  39A 0005DFF0 _ZN14DebugInterfaceD2Ev
        924  39B 000C3220 _ZN14FlashLoaderMng11Loader_InitEbb
        925  39C 000C3530 _ZN14FlashLoaderMng11Loader_ReadEjj
        926  39D 000C41B0 _ZN14FlashLoaderMng11checkForBeeEv
        927  39E 000C2F10 _ZN14FlashLoaderMng12GetSectorNbrEv
        928  39F 000C4360 _ZN14FlashLoaderMng12Loader_WriteEjj
        929  3A0 000C3A00 _ZN14FlashLoaderMng13Loader_DeInitEv
        930  3A1 000C37B0 _ZN14FlashLoaderMng13Loader_VerifyEjjjPjS0_j
        931  3A2 000C4600 _ZN14FlashLoaderMng14Loader_WriteOBEjjb
        932  3A3 000C3C60 _ZN14FlashLoaderMng15Loader_CheckSumEjjPj
        933  3A4 000C4850 _ZN14FlashLoaderMng16Loader_MassEraseEv
        934  3A5 000C6AA0 _ZN14FlashLoaderMng16Loader_ReadRangeEjjPhi
        935  3A6 000C2F00 _ZN14FlashLoaderMng17Loader_EraseBank1Ej
        936  3A7 000C2F00 _ZN14FlashLoaderMng17Loader_EraseBank2Ej
        937  3A8 000C4DA0 _ZN14FlashLoaderMng17Loader_WriteRangeEjjPh
        938  3A9 000C4A90 _ZN14FlashLoaderMng18Loader_SectorEraseEjj
        939  3AA 000C5EF0 _ZN14FlashLoaderMng22Loader_EraseWriteRangeEjjPhbPc
        940  3AB 000C6910 _ZN14FlashLoaderMng23Loader_WriteObtionBytesEjjPhb
        941  3AC 000C6E00 _ZN14FlashLoaderMng23initElfLoaderParametersEbPc
        942  3AD 000C2F30 _ZN14FlashLoaderMng24copyLoaderfunctionsToMCUEPc
        943  3AE 000C2F20 _ZN14FlashLoaderMng25Loader_EraseAndWriteBlockEjjPhbPc
        944  3AF 000C3EA0 _ZN14FlashLoaderMng30loaderMassEraseTinyRocfish512KEv
        945  3B0 0049E1C0 _ZN14FlashLoaderMng3dbgE
        946  3B1 002C96D0 _ZN14FlashLoaderMngD0Ev
        947  3B2 002C9700 _ZN14FlashLoaderMngD1Ev
        948  3B3 0012D7B0 _ZN14KmsCredentials14char2hex_rev32EPhPKci
        949  3B4 0012D850 _ZN14KmsCredentials25createBinSigfoxCredentialER7QString
        950  3B5 0012D830 _ZN14KmsCredentials8char2hexEPhPKci
        951  3B6 0012D770 _ZN14KmsCredentialsC1E7QString
        952  3B7 0012D770 _ZN14KmsCredentialsC2E7QString
        953  3B8 0012D790 _ZN14KmsCredentialsD1Ev
        954  3B9 0012D790 _ZN14KmsCredentialsD2Ev
        955  3BA 000255C0 _ZN14OTPInterfaceV110WordExistsEhSt6vectorI7WordCmdSaIS1_EERi
        956  3BB 00024EB0 _ZN14OTPInterfaceV110write_wordEPPhji
        957  3BC 000257C0 _ZN14OTPInterfaceV111ExecuteWordE7WordCmd
        958  3BD 00027060 _ZN14OTPInterfaceV112CheckDisplayE7QString
        959  3BE 00026030 _ZN14OTPInterfaceV112display_wordEj
        960  3BF 0002A6D0 _ZN14OTPInterfaceV113CheckWriteCmdE7QString
        961  3C0 0002C4E0 _ZN14OTPInterfaceV113init_otp_dataEv
        962  3C1 000295C0 _ZN14OTPInterfaceV114CheckFwriteCmdE7QString
        963  3C2 00027310 _ZN14OTPInterfaceV114ExecuteDisplayE7QString
        964  3C3 00027430 _ZN14OTPInterfaceV115CheckControlRegE5QListI7QStringE
        965  3C4 00028400 _ZN14OTPInterfaceV115CheckProgramCmdE7QString
        966  3C5 00025890 _ZN14OTPInterfaceV115DnloadOTPStructEPhPP8FileDatai
        967  3C6 0002BB20 _ZN14OTPInterfaceV115ExecuteWriteCmdE7QString
        968  3C7 00025460 _ZN14OTPInterfaceV115UploadOTPStructEPP8FileDatai
        969  3C8 00024F90 _ZN14OTPInterfaceV115update_otp_wordEijhaaaa
        970  3C9 0002D010 _ZN14OTPInterfaceV116ExecuteFwriteCmdE7QString
        971  3CA 00026E70 _ZN14OTPInterfaceV116get_int_from_optE7QString
        972  3CB 00025620 _ZN14OTPInterfaceV117ExecuteControlRegE10ControlCmd
        973  3CC 00029080 _ZN14OTPInterfaceV117ExecuteProgramCmdE7QString
        974  3CD 000251C0 _ZN14OTPInterfaceV117check_BSEC_SAFMEMEv
        975  3CE 000251E0 _ZN14OTPInterfaceV117display_bsec_dataEi
        976  3CF 00024A50 _ZN14OTPInterfaceV117get_bit_from_wordEjh
        977  3D0 00025180 _ZN14OTPInterfaceV117write_BSEC_SAFMEMEj
        978  3D1 00024AC0 _ZN14OTPInterfaceV118check_error_statusEi
        979  3D2 00025400 _ZN14OTPInterfaceV118display_bsec_ip_idEv
        980  3D3 000250E0 _ZN14OTPInterfaceV118write_BSEC_DENABLEEj
        981  3D4 00025130 _ZN14OTPInterfaceV118write_BSEC_FENABLEEj
        982  3D5 00026D70 _ZN14OTPInterfaceV119display_BSEC_HWCFGREv
        983  3D6 000253B0 _ZN14OTPInterfaceV119display_BSEC_IP_REVEv
        984  3D7 00025090 _ZN14OTPInterfaceV119write_BSEC_OTP_LOCKEj
        985  3D8 00024F70 _ZN14OTPInterfaceV120write_BSEC_OTP_DATAxEijh
        986  3D9 00024CA0 _ZN14OTPInterfaceV121check_bsec_data_valueEi
        987  3DA 00025040 _ZN14OTPInterfaceV121write_BSEC_OTP_CONFIGEj
        988  3DB 00024CE0 _ZN14OTPInterfaceV122check_bsec_data_statusEi
        989  3DC 00024A60 _ZN14OTPInterfaceV122check_disturbed_statusEi
        990  3DD 00025320 _ZN14OTPInterfaceV122display_all_shadow_otpEv
        991  3DE 00024F30 _ZN14OTPInterfaceV122write_BSEC_OTP_SPLOCKxEia
        992  3DF 00024F10 _ZN14OTPInterfaceV122write_BSEC_OTP_SRLOCKxEia
        993  3E0 00024EF0 _ZN14OTPInterfaceV122write_BSEC_OTP_SWLOCKxEia
        994  3E1 00024F50 _ZN14OTPInterfaceV122write_BSEC_OTP_WRLOCKxEia
        995  3E2 00025430 _ZN14OTPInterfaceV124display_bsec_ip_magic_idEv
        996  3E3 000252D0 _ZN14OTPInterfaceV124display_lower_shadow_otpEv
        997  3E4 00025260 _ZN14OTPInterfaceV124display_upper_shadow_otpEv
        998  3E5 00024B20 _ZN14OTPInterfaceV127check_permanent_lock_statusEi
        999  3E6 00024B80 _ZN14OTPInterfaceV129check_programming_lock_statusEi
       1000  3E7 00024C40 _ZN14OTPInterfaceV129check_shadow_read_lock_statusEi
       1001  3E8 00026D80 _ZN14OTPInterfaceV129display_integrity_informationEv
       1002  3E9 00025380 _ZN14OTPInterfaceV129display_otp_structure_versionEv
       1003  3EA 00024BE0 _ZN14OTPInterfaceV130check_shadow_write_lock_statusEi
       1004  3EB 00026D00 _ZN14OTPInterfaceV130display_bsec_control_registersEv
       1005  3EC 00027B30 _ZN14OTPInterfaceV17GetWordE5QListI7QStringER7WordCmd
       1006  3ED 00024A20 _ZN14OTPInterfaceV18get_wordEPhj
       1007  3EE 000249D0 _ZN14OTPInterfaceV1C1EP15TargetInterface
       1008  3EF 000249D0 _ZN14OTPInterfaceV1C2EP15TargetInterface
       1009  3F0 00024A10 _ZN14OTPInterfaceV1D1Ev
       1010  3F1 00024A10 _ZN14OTPInterfaceV1D2Ev
       1011  3F2 0002FA80 _ZN14OTPInterfaceV210WordExistsEtSt6vectorI7WordCmdSaIS1_EERi
       1012  3F3 0002FC70 _ZN14OTPInterfaceV211ExecuteWordE7WordCmdb
       1013  3F4 00032B10 _ZN14OTPInterfaceV212CheckDisplayE7QString
       1014  3F5 00032CA0 _ZN14OTPInterfaceV212CheckLockCmdE7QString
       1015  3F6 000300D0 _ZN14OTPInterfaceV212GetBitsValueEjjj
       1016  3F7 00031590 _ZN14OTPInterfaceV212display_wordEjb
       1017  3F8 00034BA0 _ZN14OTPInterfaceV213CheckWriteCmdE7QString
       1018  3F9 0002F9D0 _ZN14OTPInterfaceV213get_word_dataEPhj
       1019  3FA 00037130 _ZN14OTPInterfaceV213init_otp_dataEv
       1020  3FB 00038D40 _ZN14OTPInterfaceV213promptLockCmdE10ProgramCmd
       1021  3FC 00035B90 _ZN14OTPInterfaceV214CheckFwriteCmdE7QString
       1022  3FD 00034930 _ZN14OTPInterfaceV214ExecuteDisplayE7QString
       1023  3FE 000394E0 _ZN14OTPInterfaceV214ExecuteLockCmdE7QString
       1024  3FF 0002FA60 _ZN14OTPInterfaceV214getGlobalStateEPh
       1025  400 00037C70 _ZN14OTPInterfaceV214promptWriteCmdE10WriteCmdV2
       1026  401 000339D0 _ZN14OTPInterfaceV215CheckDisplayCmdE7QString
       1027  402 000308A0 _ZN14OTPInterfaceV215DnloadOTPStructEPhPP8FileDatai
       1028  403 000383C0 _ZN14OTPInterfaceV215ExecuteWriteCmdE7QString
       1029  404 00030650 _ZN14OTPInterfaceV215UploadOTPStructEPP8FileDatai
       1030  405 00030300 _ZN14OTPInterfaceV215getOtpByteValueENSt7__cxx1112basic_stringIcSt11char_traitsIcESaIcEEERj
       1031  406 0002F990 _ZN14OTPInterfaceV215write_word_dataEPPhji
       1032  407 00039BF0 _ZN14OTPInterfaceV216ExecuteFwriteCmdE7QString
       1033  408 0002FD70 _ZN14OTPInterfaceV216display_bsec_otpEv
       1034  409 00030100 _ZN14OTPInterfaceV216getOtpWordAccessEt
       1035  40A 0002FA50 _ZN14OTPInterfaceV216getStructVersionEv
       1036  40B 00032680 _ZN14OTPInterfaceV216get_int_from_optE7QString
       1037  40C 0002FA70 _ZN14OTPInterfaceV217get_bit_from_wordEjh
       1038  40D 00030D10 _ZN14OTPInterfaceV219getWordIndexfromCMDE7QString
       1039  40E 0002FBD0 _ZN14OTPInterfaceV219write_BSEC_OTP_LOCKEi
       1040  40F 00030A30 _ZN14OTPInterfaceV220displayBsecHashValueEv
       1041  410 0002FAE0 _ZN14OTPInterfaceV220write_BSEC_OTP_DATAxEijb
       1042  411 0002FA00 _ZN14OTPInterfaceV222Write_OTP_GLOBAL_STATEEj
       1043  412 000301C0 _ZN14OTPInterfaceV222verify_OTP_Write_DATAxEij
       1044  413 00031310 _ZN14OTPInterfaceV223getOtpCategoryFieldNameB5cxx11Ei
       1045  414 0002FFF0 _ZN14OTPInterfaceV224display_global_state_otpEv
       1046  415 0002FCC0 _ZN14OTPInterfaceV229check_programming_lock_statusEi
       1047  416 00030240 _ZN14OTPInterfaceV229is_programming_editable_valueEi
       1048  417 0002FD20 _ZN14OTPInterfaceV232check_programming_invalid_statusEi
       1049  418 00032870 _ZN14OTPInterfaceV27GetWordE5QListI7QStringER7WordCmd
       1050  419 0002F940 _ZN14OTPInterfaceV2C1EP15TargetInterface
       1051  41A 0002F940 _ZN14OTPInterfaceV2C2EP15TargetInterface
       1052  41B 000FBF70 _ZN14OpenBlExtFlash18initOblEnvironmentEv
       1053  41C 000FBD00 _ZN14OpenBlExtFlash4initEv
       1054  41D 000FBCB0 _ZN14OpenBlExtFlashC1EP15TargetInterface
       1055  41E 000FBCB0 _ZN14OpenBlExtFlashC2EP15TargetInterface
       1056  41F 002C9710 _ZN14Peripheral_SVDC1ERKS_
       1057  420 002C9880 _ZN14Peripheral_SVDD1Ev
       1058  421 000572B0 _ZN14ProgramManager11alignBufferEPjPPcS0_
       1059  422 00059440 _ZN14ProgramManager11getFileSizeENSt7__cxx1112basic_stringIwSt11char_traitsIwESaIwEEE
       1060  423 000578B0 _ZN14ProgramManager12getFlashSizeEj
       1061  424 00057810 _ZN14ProgramManager12getTotalSizeEbP8FileTypejy
       1062  425 00059530 _ZN14ProgramManager13programMemoryENSt7__cxx1112basic_stringIwSt11char_traitsIwESaIwEEEjjbb
       1063  426 00057750 _ZN14ProgramManager13wchar_To_CharENSt7__cxx1112basic_stringIwSt11char_traitsIwESaIwEEE
       1064  427 000577F0 _ZN14ProgramManager14getSegmentSizeEbP8FileTypejj
       1065  428 00057F50 _ZN14ProgramManager14verifyDownloadEPP8FileType
       1066  429 00058AE0 _ZN14ProgramManager15getCheckSumFileEP8FileTypejj
       1067  42A 00057740 _ZN14ProgramManager16getCancelPointerEv
       1068  42B 000577E0 _ZN14ProgramManager16getSegmentNumberEbP8FileType
       1069  42C 00058BE0 _ZN14ProgramManager17verifyTsvBinariesEP8FileTypeNSt7__cxx1112basic_stringIwSt11char_traitsIwESaIwEEES7_
       1070  42D 000588E0 _ZN14ProgramManager18getProgrammingSizeEjjjj
       1071  42E 00058800 _ZN14ProgramManager20countConsecutiveOnesEjR5QListIjE
       1072  42F 00057830 _ZN14ProgramManager20getStartWriteAddressEbP8FileTypejj
       1073  430 0005C0E0 _ZN14ProgramManager20startFlashingServiceENSt7__cxx1112basic_stringIwSt11char_traitsIwESaIwEEES5_
       1074  431 00058870 _ZN14ProgramManager21countConsecutiveZerosEjiR5QListIjE
       1075  432 0049CBC8 _ZN14ProgramManager21isSerialUsbMiniKernelE
       1076  433 00057860 _ZN14ProgramManager23getSectorNumberCheckSumEjj
       1077  434 000589B0 _ZN14ProgramManager28getPartialSectorSizeCheckSumEjjj
       1078  435 00057600 _ZN14ProgramManager6verifyEjjPh
       1079  436 000572A0 _ZN14ProgramManager7isUBootEv
       1080  437 00057720 _ZN14ProgramManager9getCancelEv
       1081  438 00057730 _ZN14ProgramManager9setCancelEi
       1082  439 00056C20 _ZN14ProgramManagerC1Ev
       1083  43A 00056C20 _ZN14ProgramManagerC2Ev
       1084  43B 000570D0 _ZN14ProgramManagerD0Ev
       1085  43C 00056F30 _ZN14ProgramManagerD1Ev
       1086  43D 00056F30 _ZN14ProgramManagerD2Ev
       1087  43E 002C9A10 _ZN14QByteArrayView21lengthHelperCharArrayEPKcy
       1088  43F 00253C80 _ZN14RdpLockManager13lockRdpLevel1Ejjjj
       1089  440 00253EE0 _ZN14RdpLockManager13lockRdpLevel2Ejjjj
       1090  441 00253900 _ZN14RdpLockManager15unLockRdpLevel1Ejjjj
       1091  442 00253BF0 _ZN14RdpLockManager19getOldRdpLevelValueEv
       1092  443 00253660 _ZN14RdpLockManagerC1EP15TargetInterface
       1093  444 00253660 _ZN14RdpLockManagerC2EP15TargetInterface
       1094  445 00253750 _ZN14RdpLockManagerD1Ev
       1095  446 00253750 _ZN14RdpLockManagerD2Ev
       1096  447 002C9A50 _ZN15GenInformationsC1ERKS_
       1097  448 002C9B30 _ZN15GenInformationsD1Ev
       1098  449 000227F0 _ZN15JLink_Interface10apScan_SWDEv
       1099  44A 00022570 _ZN15JLink_Interface10disconnectEv
       1100  44B 000225F0 _ZN15JLink_Interface10readMemoryEjiPh
       1101  44C 00022910 _ZN15JLink_Interface10unlockRDP1Ev
       1102  44D 00022AA0 _ZN15JLink_Interface10unlockRDP2Ej
       1103  44E 00022710 _ZN15JLink_Interface11GetDeviceIDEv
       1104  44F 000223D0 _ZN15JLink_Interface11displayInfoEv
       1105  450 000237E0 _ZN15JLink_Interface11loadLibraryEv
       1106  451 000228D0 _ZN15JLink_Interface12getJLinkListEv
       1107  452 00022530 _ZN15JLink_Interface12haltAllCoresEv
       1108  453 000224F0 _ZN15JLink_Interface12readRegisterEhPj
       1109  454 00022470 _ZN15JLink_Interface13getCoreStatusEP8CoreStat
       1110  455 000223D0 _ZN15JLink_Interface13hardwareResetEv
       1111  456 00022300 _ZN15JLink_Interface13programMemoryEjPcj
       1112  457 000224A0 _ZN15JLink_Interface13writeRegisterEhj
       1113  458 000223D0 _ZN15JLink_Interface18InitExtFlashOpenBlEv
       1114  459 00022560 _ZN15JLink_Interface21getDebugInterfaceInfoEv
       1115  45A 000223E0 _ZN15JLink_Interface3runEv
       1116  45B 00022400 _ZN15JLink_Interface4haltEv
       1117  45C 00022590 _ZN15JLink_Interface4stepEv
       1118  45D 00022360 _ZN15JLink_Interface5read8EjPcj
       1119  45E 00022740 _ZN15JLink_Interface5resetE9ResetMode
       1120  45F 00022390 _ZN15JLink_Interface5resetEv
       1121  460 00022320 _ZN15JLink_Interface6read16EjPcj
       1122  461 00022330 _ZN15JLink_Interface6read32EjPcj
       1123  462 00022320 _ZN15JLink_Interface6write8EjPcj
       1124  463 00022D00 _ZN15JLink_Interface7connectE7QStringhh
       1125  464 00022550 _ZN15JLink_Interface7getNbAPEPi
       1126  465 000227E0 _ZN15JLink_Interface7readRegEiPj
       1127  466 00022320 _ZN15JLink_Interface7write16EjPcj
       1128  467 00022300 _ZN15JLink_Interface7write32EjPjj
       1129  468 00022320 _ZN15JLink_Interface8read32NSEjPcj
       1130  469 00022420 _ZN15JLink_Interface8writeRegEij
       1131  46A 00023AD0 _ZN15JLink_InterfaceC1Ev
       1132  46B 00023AD0 _ZN15JLink_InterfaceC2Ev
       1133  46C 000225C0 _ZN15JLink_InterfaceD0Ev
       1134  46D 000225B0 _ZN15JLink_InterfaceD1Ev
       1135  46E 000225B0 _ZN15JLink_InterfaceD2Ev
       1136  46F 002726F0 _ZN15PListFileParser14parsePListFileEP9QIODevice
       1137  470 00271360 _ZN15PListFileParser15parseDomElementERK11QDomElement
       1138  471 00272290 _ZN15PListFileParser16parseDictElementERK11QDomElement
       1139  472 00271200 _ZN15PListFileParser20parseArrayDomElementERK11QDomElement
       1140  473 0025FD60 _ZN15ProductStateRSS11changeObRSSEjjjj
       1141  474 0025E900 _ZN15ProductStateRSS15getProductStateEv
       1142  475 0025F1F0 _ZN15ProductStateRSS17call_RSSLIB_SetObEv
       1143  476 0025E9B0 _ZN15ProductStateRSS17loadObKeyToMcuRamENSt7__cxx1112basic_stringIwSt11char_traitsIwESaIwEEE
       1144  477 0025FBF0 _ZN15ProductStateRSS19GetSTM32_descriptorEv
       1145  478 0025FE50 _ZN15ProductStateRSS22displayProductStateRSSEv
       1146  479 0025EE80 _ZN15ProductStateRSS23call_RSSLIB_SetOb_DebugEP16rssLibSetPSError
       1147  47A 0025F8B0 _ZN15ProductStateRSS24GetSTM32_descriptor_AddrEjRj
       1148  47B 0025FFE0 _ZN15ProductStateRSS24provisionProductStateRSSEj
       1149  47C 0025F2A0 _ZN15ProductStateRSS27call_RSSLIB_GetProductStateEPh
       1150  47D 0025F760 _ZN15ProductStateRSS27call_RSSLIB_SetProductStateEv
       1151  47E 00260B50 _ZN15ProductStateRSS30call_RSSLIB_SetWrps_BootloaderEjhP16rssLibSetPSError
       1152  47F 00260850 _ZN15ProductStateRSS32call_RSSLIB_SetHdpEnd_BootloaderEjP16rssLibSetPSError
       1153  480 0025EB20 _ZN15ProductStateRSS33call_RSSLIB_GetProductState_DebugEP16rssLibSetPSErrorPh
       1154  481 0025F410 _ZN15ProductStateRSS33call_RSSLIB_SetProductState_DebugEP16rssLibSetPSError
       1155  482 00260560 _ZN15ProductStateRSS34call_RSSLIB_SetHdpStart_BootloaderEjP16rssLibSetPSError
       1156  483 002602F0 _ZN15ProductStateRSS36call_RSSLIB_SetIrotSelect_BootloaderEjP16rssLibSetPSError
       1157  484 0025E950 _ZN15ProductStateRSS38call_RSSLIB_GetProductState_BootloaderEP16rssLibSetPSErrorPh
       1158  485 0025E910 _ZN15ProductStateRSS38call_RSSLIB_SetProductState_BootloaderEP16rssLibSetPSError
       1159  486 0025E8B0 _ZN15ProductStateRSSC1EP15TargetInterface
       1160  487 0025E8B0 _ZN15ProductStateRSSC2EP15TargetInterface
       1161  488 0025E8E0 _ZN15ProductStateRSSD1Ev
       1162  489 0025E8E0 _ZN15ProductStateRSSD2Ev
       1163  48A 002C9C00 _ZN15QtSharedPointer33ExternalRefCountWithCustomDeleterI16ST_LINKInterfaceNS_13NormalDeleterEE7deleterEPNS_20ExternalRefCountDataE
       1164  48B 0013A9C0 _ZN15SecurityExtRSSe10GetOBValueENSt7__cxx1112basic_stringIcSt11char_traitsIcESaIcEEERj
       1165  48C 00146310 _ZN15SecurityExtRSSe10launchRSSeE7QString
       1166  48D 001425E0 _ZN15SecurityExtRSSe11InstallRSSeENSt7__cxx1112basic_stringIwSt11char_traitsIwESaIwEEEj
       1167  48E 0013FC80 _ZN15SecurityExtRSSe11ProcessAreaEP7FileSFI10QByteArrayijP12DbgItfStatus
       1168  48F 0013AEA0 _ZN15SecurityExtRSSe11SetRSSeAddrEjj
       1169  490 0013F110 _ZN15SecurityExtRSSe11bootRSSJTAGEv
       1170  491 00145A60 _ZN15SecurityExtRSSe11getHsmCardsEv
       1171  492 0013FA40 _ZN15SecurityExtRSSe12getProductIDEj
       1172  493 00149560 _ZN15SecurityExtRSSe12programSFIv2EP8FileDataP7FileSFI5QListI7QStringES5_S5_S5_
       1173  494 0013AF60 _ZN15SecurityExtRSSe12setInputAddrERKj
       1174  495 00141DE0 _ZN15SecurityExtRSSe13GetRSSeStatusERj
       1175  496 00141620 _ZN15SecurityExtRSSe13GetRssVersionEv
       1176  497 00140D00 _ZN15SecurityExtRSSe13parseEcsvFileEP8FileECSV
       1177  498 001409D0 _ZN15SecurityExtRSSe13parseMcsvFileEP8FileMCSV
       1178  499 0013AF80 _ZN15SecurityExtRSSe13setResultAddrERKj
       1179  49A 00143320 _ZN15SecurityExtRSSe14GetCertificateEPP8FileData
       1180  49B 0013D720 _ZN15SecurityExtRSSe14ProcessLicenseEP8FileDataj
       1181  49C 0013E680 _ZN15SecurityExtRSSe14getRsseVersionEv
       1182  49D 0013AF40 _ZN15SecurityExtRSSe14setPayloadAddrERKj
       1183  49E 0013C800 _ZN15SecurityExtRSSe15sendRstCmdRssBlEv
       1184  49F 0013F320 _ZN15SecurityExtRSSe15setDefaultOBBeeEv
       1185  4A0 0013C690 _ZN15SecurityExtRSSe16SetRSSexecuteCMDEjjj
       1186  4A1 0013CC70 _ZN15SecurityExtRSSe18ProcessImageHeaderEP7FileSFIj
       1187  4A2 0013B170 _ZN15SecurityExtRSSe18activate55RdpLevelEv
       1188  4A3 0013E520 _ZN15SecurityExtRSSe19GetSTM32_descriptorEv
       1189  4A4 0013B450 _ZN15SecurityExtRSSe19isCpuNonSecureStateERb
       1190  4A5 0013B3F0 _ZN15SecurityExtRSSe19isH5NonCryptoDeviceEv
       1191  4A6 0049F540 _ZN15SecurityExtRSSe20isSfiLastArea_staticE
       1192  4A7 0013CAB0 _ZN15SecurityExtRSSe21ReconnectAfterResetv2E7QString
       1193  4A8 0013C520 _ZN15SecurityExtRSSe21setRssExecuteCmdViaBlEhh
       1194  4A9 0013B4C0 _ZN15SecurityExtRSSe22setRssExecuteCmdViaDbgEjjj
       1195  4AA 0013E160 _ZN15SecurityExtRSSe24GetSTM32_descriptor_AddrEjRj
       1196  4AB 001430D0 _ZN15SecurityExtRSSe24getCertificateFromMemoryEPP8FileData
       1197  4AC 00144CC0 _ZN15SecurityExtRSSe31prepareModulePayloadWithLicenseE10QByteArrayhPS0_
       1198  4AD 0013BD80 _ZN15SecurityExtRSSe32eraseExternalFlashWithBootloaderEP7FileSFI
       1199  4AE 0013C290 _ZN15SecurityExtRSSe34programExternalFlashWithBootloaderEjjj
       1200  4AF 001453A0 _ZN15SecurityExtRSSe35prepareModuleSlotPayloadWithLicenseE10QByteArrayhPS0_
       1201  4B0 001410A0 _ZN15SecurityExtRSSe8SetObCmdE7QString
       1202  4B1 0013C960 _ZN15SecurityExtRSSe9bootRSSBLEv
       1203  4B2 0013AF90 _ZN15SecurityExtRSSe9checkBootEv
       1204  4B3 00141D30 _ZN15SecurityExtRSSeC1EP15TargetInterface
       1205  4B4 00141D30 _ZN15SecurityExtRSSeC2EP15TargetInterface
       1206  4B5 0013A900 _ZN15SecurityExtRSSeD0Ev
       1207  4B6 0013A850 _ZN15SecurityExtRSSeD1Ev
       1208  4B7 0013A850 _ZN15SecurityExtRSSeD2Ev
       1209  4B8 0014E630 _ZN15SecurityExtSSFI10GetOBValueENSt7__cxx1112basic_stringIcSt11char_traitsIcESaIcEEERj
       1210  4B9 00153390 _ZN15SecurityExtSSFI10launchRSSeE7QString
       1211  4BA 00152D40 _ZN15SecurityExtSSFI11InstallRSSeENSt7__cxx1112basic_stringIwSt11char_traitsIwESaIwEEEj
       1212  4BB 00151B00 _ZN15SecurityExtSSFI11ProcessSSFIE10QByteArrayj
       1213  4BC 0014ED40 _ZN15SecurityExtSSFI11SetRSSeAddrEjj
       1214  4BD 00150BF0 _ZN15SecurityExtSSFI11bootRSSJTAGEv
       1215  4BE 00153F20 _ZN15SecurityExtSSFI11programSSFIE7QStringS0_
       1216  4BF 001517E0 _ZN15SecurityExtSSFI12getProductIDEj
       1217  4C0 0014EE00 _ZN15SecurityExtSSFI12setInputAddrERKj
       1218  4C1 001527C0 _ZN15SecurityExtSSFI13GetRSSeStatusERj
       1219  4C2 00151520 _ZN15SecurityExtSSFI13GetRssVersionEv
       1220  4C3 0014EE20 _ZN15SecurityExtSSFI13setResultAddrERKj
       1221  4C4 0014E530 _ZN15SecurityExtSSFI14GetCertificateEPP8FileData
       1222  4C5 001502B0 _ZN15SecurityExtSSFI14ProcessLicenseEP8FileDataj
       1223  4C6 00150910 _ZN15SecurityExtSSFI14getRsseVersionEv
       1224  4C7 0014EDE0 _ZN15SecurityExtSSFI14setPayloadAddrERKj
       1225  4C8 0014FC20 _ZN15SecurityExtSSFI15sendRstCmdRssBlEv
       1226  4C9 00150E00 _ZN15SecurityExtSSFI15setDefaultOBBeeEv
       1227  4CA 0014FAB0 _ZN15SecurityExtSSFI16SetRSSexecuteCMDEjjj
       1228  4CB 00150010 _ZN15SecurityExtSSFI18ProcessImageHeaderEP7FileSFIj
       1229  4CC 0014F010 _ZN15SecurityExtSSFI18activate55RdpLevelEv
       1230  4CD 00150840 _ZN15SecurityExtSSFI19GetSTM32_descriptorEv
       1231  4CE 0014FE50 _ZN15SecurityExtSSFI21ReconnectAfterResetv2E7QString
       1232  4CF 0014F940 _ZN15SecurityExtSSFI21setRssExecuteCmdViaBlEhh
       1233  4D0 0014E9A0 _ZN15SecurityExtSSFI22setRssExecuteCmdViaDbgEjjj
       1234  4D1 00150540 _ZN15SecurityExtSSFI24GetSTM32_descriptor_AddrEjRj
       1235  4D2 0014E530 _ZN15SecurityExtSSFI24getCertificateFromMemoryEPP8FileData
       1236  4D3 0014F290 _ZN15SecurityExtSSFI32eraseExternalFlashWithBootloaderEP7FileSFI
       1237  4D4 0014F6B0 _ZN15SecurityExtSSFI34programExternalFlashWithBootloaderEjjj
       1238  4D5 00152260 _ZN15SecurityExtSSFI8SetObCmdE7QString
       1239  4D6 0014FD00 _ZN15SecurityExtSSFI9bootRSSBLEv
       1240  4D7 0014EE30 _ZN15SecurityExtSSFI9checkBootEv
       1241  4D8 0014E5C0 _ZN15SecurityExtSSFIC1EP15TargetInterface
       1242  4D9 0014E5C0 _ZN15SecurityExtSSFIC2EP15TargetInterface
       1243  4DA 0014E580 _ZN15SecurityExtSSFID0Ev
       1244  4DB 0014E540 _ZN15SecurityExtSSFID1Ev
       1245  4DC 0014E540 _ZN15SecurityExtSSFID2Ev
       1246  4DD 00051F10 _ZN15TargetInterfaceC1Ev
       1247  4DE 00051F10 _ZN15TargetInterfaceC2Ev
       1248  4DF 00052060 _ZN15TargetInterfaceD0Ev
       1249  4E0 00051FC0 _ZN15TargetInterfaceD1Ev
       1250  4E1 00051FC0 _ZN15TargetInterfaceD2Ev
       1251  4E2 004A0620 _ZN16AnalyticsManager11ptrInstanceE
       1252  4E3 0026D560 _ZN16AnalyticsManager12getFlashTypeEv
       1253  4E4 00270E90 _ZN16AnalyticsManager12registerDataE7QStringS0_
       1254  4E5 0026D4D0 _ZN16AnalyticsManager13getMemoryTypeEv
       1255  4E6 0026CBD0 _ZN16AnalyticsManager13getRequestNumEv
       1256  4E7 0026D8C0 _ZN16AnalyticsManager13saveFlashTypeEi
       1257  4E8 0026D460 _ZN16AnalyticsManager13setMemoryTypeE7QString
       1258  4E9 0026C780 _ZN16AnalyticsManager14getRequestsMapEv
       1259  4EA 0026F540 _ZN16AnalyticsManager15saveTrackedDataEv
       1260  4EB 002699C0 _ZN16AnalyticsManager17convertMemorySizeEd
       1261  4EC 00270710 _ZN16AnalyticsManager18getAnalyticsStatusEv
       1262  4ED 0026D5F0 _ZN16AnalyticsManager18getSegmentSizesMapE4QMapIiiE
       1263  4EE 0026D6A0 _ZN16AnalyticsManager18getSegmentTypesMapE4QMapIi7QStringE
       1264  4EF 0026D750 _ZN16AnalyticsManager18getStLinkVersionIdEv
       1265  4F0 0026B2C0 _ZN16AnalyticsManager19readUserPrefFromXmlE7QStringS0_
       1266  4F1 0026D3F0 _ZN16AnalyticsManager19saveStLinkVersionIdE7QString
       1267  4F2 0026A2C0 _ZN16AnalyticsManager20findIntervalExternalEd
       1268  4F3 0026A8E0 _ZN16AnalyticsManager20findIntervalInternalEd
       1269  4F4 0026E6C0 _ZN16AnalyticsManager20getExternalFlashSizeEv
       1270  4F5 0026E040 _ZN16AnalyticsManager20getInternalFlashSizeEv
       1271  4F6 0026EBD0 _ZN16AnalyticsManager23exportExternalFlashSizeEv
       1272  4F7 0026E550 _ZN16AnalyticsManager23exportInternalFlashSizeEv
       1273  4F8 0026D310 _ZN16AnalyticsManager27enableTrackingSecureManagerEb
       1274  4F9 0026BC10 _ZN16AnalyticsManager28readUserPrefFromPropertyFileE7QStringS0_
       1275  4FA 0026D380 _ZN16AnalyticsManager30isSecureManagerTrackingEnabledEv
       1276  4FB 00269ED0 _ZN16AnalyticsManager5getOSEv
       1277  4FC 0026F5B0 _ZN16AnalyticsManager7addDataE7QStringS0_
       1278  4FD 0026D2A0 _ZN16AnalyticsManager8InstanceEv
       1279  4FE 0026ED40 _ZN16AnalyticsManager8saveDataEv
       1280  4FF 0026A000 _ZN16AnalyticsManager9getOsArchEv
       1281  500 00269790 _ZN16AnalyticsManager9terminateEv
       1282  501 0026CCF0 _ZN16AnalyticsManagerC1Ev
       1283  502 0026CCF0 _ZN16AnalyticsManagerC2Ev
       1284  503 000E89F0 _ZN16FastRomDomParser10GetCfgListE8QDomAttr
       1285  504 000EED10 _ZN16FastRomDomParser10GetPeriphsE8QDomNode
       1286  505 000E7320 _ZN16FastRomDomParser11GetParmListE8QDomNodeRNSt7__cxx1112basic_stringIcSt11char_traitsIcESaIcEEERjS8_Pj
       1287  506 000EB5B0 _ZN16FastRomDomParser12GetConfigBitE8QDomNodeRSt6vectorI3BitSaIS2_EE
       1288  507 000E63F0 _ZN16FastRomDomParser12GetConfigEquE8QDomNode
       1289  508 000E77F0 _ZN16FastRomDomParser12GetConfigValE8QDomNode
       1290  509 000E8010 _ZN16FastRomDomParser12GetInterfaceE8QDomNode
       1291  50A 000EDE50 _ZN16FastRomDomParser13GetConfigBankE8QDomNode
       1292  50B 000E5A00 _ZN16FastRomDomParser13GetDeviceNodeEt
       1293  50C 000F2F60 _ZN16FastRomDomParser13init_QDom_docE7QStringPP12QDomDocument
       1294  50D 000E5790 _ZN16FastRomDomParser14CheckDataStateEv
       1295  50E 000E9550 _ZN16FastRomDomParser14GetStorageBankE8QDomNode
       1296  50F 000E66D0 _ZN16FastRomDomParser15CheckPeriphTypeE8QDomNode
       1297  510 000EE660 _ZN16FastRomDomParser15GetConfigPeriphE8QDomNode
       1298  511 000ED2A0 _ZN16FastRomDomParser15GetConfigSectorE8QDomNode
       1299  512 000E7B60 _ZN16FastRomDomParser16GetConfigurationE8QDomNode
       1300  513 000E9800 _ZN16FastRomDomParser16GetStorageConfigE8QDomNode
       1301  514 000E9F80 _ZN16FastRomDomParser16GetStoragePeriphE8QDomNode
       1302  515 000E8D10 _ZN16FastRomDomParser16GetStorageSectorE8QDomNodeRSt6vectorI13StorageSectorSaIS2_EE
       1303  516 000ED8D0 _ZN16FastRomDomParser17GetConfigCategoryE8QDomNode
       1304  517 000EF830 _ZN16FastRomDomParser17GetConfigurationsE8QDomNode
       1305  518 000E6F00 _ZN16FastRomDomParser18GetConfigConditionE8QDomNode
       1306  519 000E68A0 _ZN16FastRomDomParser18GetGenInformationsE8QDomNode
       1307  51A 000E6030 _ZN16FastRomDomParser19GetConfigRConditionE8QDomNode
       1308  51B 000E5D50 _ZN16FastRomDomParser19GetConfigWConditionE8QDomNode
       1309  51C 000ED100 _ZN16FastRomDomParser21GetConfigAssignedBitsE8QDomNode
       1310  51D 000EE380 _ZN16FastRomDomParser22GetConfigconfigurationE8QDomNode
       1311  51E 000E5900 _ZN16FastRomDomParser7get_txtB5cxx11E8QDomNode
       1312  51F 000E57A0 _ZN16FastRomDomParser8check_DBEv
       1313  520 000F19E0 _ZN16FastRomDomParser9GetDeviceEt
       1314  521 000F30F0 _ZN16FastRomDomParserC1ENSt7__cxx1112basic_stringIcSt11char_traitsIcESaIcEEE
       1315  522 000F30F0 _ZN16FastRomDomParserC2ENSt7__cxx1112basic_stringIcSt11char_traitsIcESaIcEEE
       1316  523 000E5740 _ZN16FastRomDomParserD1Ev
       1317  524 000E5740 _ZN16FastRomDomParserD2Ev
       1318  525 00138FB0 _ZN16FlashLoaderMngBl11Loader_InitEbb
       1319  526 00138C10 _ZN16FlashLoaderMngBl11Loader_ReadEjj
       1320  527 00138C00 _ZN16FlashLoaderMngBl12GetSectorNbrEv
       1321  528 00138C10 _ZN16FlashLoaderMngBl12Loader_WriteEjj
       1322  529 00138C40 _ZN16FlashLoaderMngBl13Loader_DeInitEv
       1323  52A 00138C30 _ZN16FlashLoaderMngBl13Loader_VerifyEjjjPjS0_j
       1324  52B 00138C20 _ZN16FlashLoaderMngBl14Loader_WriteOBEjjb
       1325  52C 00138C60 _ZN16FlashLoaderMngBl15Loader_CheckSumEjjPj
       1326  52D 00138C40 _ZN16FlashLoaderMngBl16Loader_MassEraseEv
       1327  52E 00138C90 _ZN16FlashLoaderMngBl16Loader_ReadRangeEjjPhi
       1328  52F 00138C50 _ZN16FlashLoaderMngBl17Loader_EraseBank1Ej
       1329  530 00138C50 _ZN16FlashLoaderMngBl17Loader_EraseBank2Ej
       1330  531 00138C60 _ZN16FlashLoaderMngBl17Loader_WriteRangeEjjPh
       1331  532 00139460 _ZN16FlashLoaderMngBl18Loader_SectorEraseEjj
       1332  533 00139A10 _ZN16FlashLoaderMngBl20loaderWriteRangeRsseEjjj
       1333  534 00138C80 _ZN16FlashLoaderMngBl22Loader_EraseWriteRangeEjjPhbPc
       1334  535 00138B70 _ZN16FlashLoaderMngBl23ElfGetSectorAddrFromIdxEjP11StorageInfo
       1335  536 00138B20 _ZN16FlashLoaderMngBl23ElfGetSectorAddrFromIdxEjP11StorageInfob
       1336  537 00138AB0 _ZN16FlashLoaderMngBl23ElfGetSectorIdxFromAddrEjP11StorageInfo
       1337  538 00138BB0 _ZN16FlashLoaderMngBl23ElfGetSectorSizeFromIdxEjP11StorageInfo
       1338  539 00138C70 _ZN16FlashLoaderMngBl23Loader_WriteObtionBytesEjjPhb
       1339  53A 00139E10 _ZN16FlashLoaderMngBl23initElfLoaderParametersEbPc
       1340  53B 00139860 _ZN16FlashLoaderMngBl24ElfGetSectorSizeFromAddrEjP11StorageInfo
       1341  53C 00138CE0 _ZN16FlashLoaderMngBl24copyLoaderfunctionsToMCUEPc
       1342  53D 00138C80 _ZN16FlashLoaderMngBl25Loader_EraseAndWriteBlockEjjPhbPc
       1343  53E 00138C40 _ZN16FlashLoaderMngBl30loaderMassEraseTinyRocfish512KEv
       1344  53F 00139910 _ZN16FlashLoaderMngBlC1EP19BootloaderInterface
       1345  540 00139910 _ZN16FlashLoaderMngBlC2EP19BootloaderInterface
       1346  541 00139810 _ZN16FlashLoaderMngBlD0Ev
       1347  542 00138CA0 _ZN16FlashLoaderMngBlD1Ev
       1348  543 00138CA0 _ZN16FlashLoaderMngBlD2Ev
       1349  544 000C1130 _ZN16MemoryProtection14executeProgCmdE7QStringh
       1350  545 000C0CD0 _ZN16MemoryProtection15activateSwdModeEv
       1351  546 000C0FD0 _ZN16MemoryProtection15readDataBlueNRGEjPj
       1352  547 000C0BA0 _ZN16MemoryProtection20readOptionByteStatusEv
       1353  548 000C0B90 _ZN16MemoryProtection23disableMemoryProtectionEv
       1354  549 000C09F0 _ZN16MemoryProtection24activateMemoryProtectionEv
       1355  54A 000C0F60 _ZN16MemoryProtection9displayOBEv
       1356  54B 000C0BB0 _ZN16MemoryProtection9massEraseEv
       1357  54C 0011E7C0 _ZN16ST_LINKInterface10clearDBGENEv
       1358  54D 0011E660 _ZN16ST_LINKInterface10disableWDGEb
       1359  54E 0011CD40 _ZN16ST_LINKInterface10disconnectEv
       1360  54F 0011CC50 _ZN16ST_LINKInterface10readMemoryEjiPh
       1361  550 0011C600 _ZN16ST_LINKInterface11GetDeviceIDEv
       1362  551 0011FBD0 _ZN16ST_LINKInterface11displayInfoEv
       1363  552 0011C9D0 _ZN16ST_LINKInterface12haltAllCoresEv
       1364  553 0011D680 _ZN16ST_LINKInterface12isCoreHaltedEPc
       1365  554 0011CB60 _ZN16ST_LINKInterface12readRegisterEhPj
       1366  555 0011EE30 _ZN16ST_LINKInterface13DisableWDGRSTEP15TargetInterfacePS_b
       1367  556 0011CAF0 _ZN16ST_LINKInterface13getCoreStatusEP8CoreStat
       1368  557 00123F90 _ZN16ST_LINKInterface13getSTLinkListEv
       1369  558 0011C990 _ZN16ST_LINKInterface13hardwareResetEv
       1370  559 0011C630 _ZN16ST_LINKInterface13programMemoryEjPcj
       1371  55A 0011BEA0 _ZN16ST_LINKInterface13readCortexRegEP7CoreReg
       1372  55B 00121030 _ZN16ST_LINKInterface13stlinkPowerONEi
       1373  55C 0011CBE0 _ZN16ST_LINKInterface13writeRegisterEhj
       1374  55D 0011FF40 _ZN16ST_LINKInterface14getIndexFromSnE7QString
       1375  55E 0011D950 _ZN16ST_LINKInterface14runApplicationEjj
       1376  55F 00120AA0 _ZN16ST_LINKInterface14stlinkPowerOFFEi
       1377  560 0011CF60 _ZN16ST_LINKInterface14writeCortexRegEP7CoreReg
       1378  561 001208C0 _ZN16ST_LINKInterface15getSTLinkNumberEv
       1379  562 0011D810 _ZN16ST_LINKInterface15readMCURegisterEjPj
       1380  563 0011D700 _ZN16ST_LINKInterface15setSWDFrequencyEi
       1381  564 0011F940 _ZN16ST_LINKInterface15setSharedParamsEi
       1382  565 00120280 _ZN16ST_LINKInterface15unlockRdpLevel1Ev
       1383  566 001215A0 _ZN16ST_LINKInterface15unlockRdpLevel2Ei
       1384  567 0011D720 _ZN16ST_LINKInterface16setJTAGFrequencyEi
       1385  568 0011E2D0 _ZN16ST_LINKInterface16writeMCURegisterEjj
       1386  569 0011BC80 _ZN16ST_LINKInterface18InitExtFlashOpenBlEv
       1387  56A 0011BC80 _ZN16ST_LINKInterface18clearAllInterruptsEv
       1388  56B 0011EF20 _ZN16ST_LINKInterface21getDebugInterfaceInfoEv
       1389  56C 00121A60 _ZN16ST_LINKInterface24getTotalAccessPortNumberEPi
       1390  56D 0011E3D0 _ZN16ST_LINKInterface29writeDbgMcuRegistre_AUTH_HOSTEj
       1391  56E 0011C5B0 _ZN16ST_LINKInterface3runEv
       1392  56F 0011BE40 _ZN16ST_LINKInterface4haltEv
       1393  570 0011CAA0 _ZN16ST_LINKInterface4stepEv
       1394  571 0011BD90 _ZN16ST_LINKInterface5read8EjPcj
       1395  572 0011C900 _ZN16ST_LINKInterface5resetE9ResetMode
       1396  573 0011C860 _ZN16ST_LINKInterface5resetEv
       1397  574 0011DA80 _ZN16ST_LINKInterface5startEj
       1398  575 0011BD90 _ZN16ST_LINKInterface6read16EjPcj
       1399  576 0011BCE0 _ZN16ST_LINKInterface6read32EjPcj
       1400  577 0011C7B0 _ZN16ST_LINKInterface6write8EjPcj
       1401  578 001224A0 _ZN16ST_LINKInterface7connectE7QStringhh
       1402  579 0011BC10 _ZN16ST_LINKInterface7getNbAPEPi
       1403  57A 0011E990 _ZN16ST_LINKInterface7setRDP0Ev
       1404  57B 0011C730 _ZN16ST_LINKInterface7write16EjPcj
       1405  57C 0011C6B0 _ZN16ST_LINKInterface7write32EjPjj
       1406  57D 0011DBD0 _ZN16ST_LINKInterface8getErrorE14DbgDev_StatusT
       1407  57E 0011BD90 _ZN16ST_LINKInterface8read32NSEjPcj
       1408  57F 0011CE10 _ZN16ST_LINKInterface8writeRegEij
       1409  580 0011E860 _ZN16ST_LINKInterface9enableDBGEv
       1410  581 0011ECC0 _ZN16ST_LINKInterface9getAuthIDEi
       1411  582 0011D490 _ZN16ST_LINKInterfaceC1Ei
       1412  583 0011D580 _ZN16ST_LINKInterfaceC1Ei20TEnumStlinkInterface
       1413  584 0011D490 _ZN16ST_LINKInterfaceC2Ei
       1414  585 0011D580 _ZN16ST_LINKInterfaceC2Ei20TEnumStlinkInterface
       1415  586 0011D430 _ZN16ST_LINKInterfaceD0Ev
       1416  587 0011BC90 _ZN16ST_LINKInterfaceD1Ev
       1417  588 0011BC90 _ZN16ST_LINKInterfaceD2Ev
       1418  589 00113E10 _ZN16SerialSSPSecuExt10programSspENSt7__cxx1112basic_stringIwSt11char_traitsIwESaIwEEES5_S5_iiS5_
       1419  58A 001115F0 _ZN16SerialSSPSecuExt11authKeyLockEv
       1420  58B 00111620 _ZN16SerialSSPSecuExt11getRSSstateEPhS0_
       1421  58C 001115F0 _ZN16SerialSSPSecuExt11getkeyIndexEv
       1422  58D 00111630 _ZN16SerialSSPSecuExt13authKeyUpdateEP8FileData
       1423  58E 001117C0 _ZN16SerialSSPSecuExt14GetCertificateEPP8FileData
       1424  58F 001115F0 _ZN16SerialSSPSecuExt14firmwareDeleteEv
       1425  590 00112C40 _ZN16SerialSSPSecuExt14programSspRSSeE7QStringS0_S0_iS0_
       1426  591 00111610 _ZN16SerialSSPSecuExt15firmwareUpgradeEjj
       1427  592 00111960 _ZN16SerialSSPSecuExt15getMpuProductIDEPPhPKw
       1428  593 00111640 _ZN16SerialSSPSecuExt15writeUserKeyAESEh
       1429  594 00111630 _ZN16SerialSSPSecuExt15writeUserKeyMEMEP8FileData
       1430  595 001154B0 _ZN16SerialSSPSecuExt16getHsmMpuLicenseEiNSt7__cxx1112basic_stringIwSt11char_traitsIwESaIwEEES5_
       1431  596 001115F0 _ZN16SerialSSPSecuExt18startWirelessStackEv
       1432  597 00111600 _ZN16SerialSSPSecuExt19waitForFWupgradeENDEj
       1433  598 00111600 _ZN16SerialSSPSecuExt19waitForRSSIDLEstateEj
       1434  599 00112120 _ZN16SerialSSPSecuExt21getMpuChipCertificateENSt7__cxx1112basic_stringIwSt11char_traitsIwESaIwEEES5_
       1435  59A 001115F0 _ZN16SerialSSPSecuExt8getUID64Ev
       1436  59B 00111680 _ZN16SerialSSPSecuExt9writeBlobEP8FileData
       1437  59C 00111910 _ZN16SerialSSPSecuExtC1EP15TargetInterface
       1438  59D 00111910 _ZN16SerialSSPSecuExtC2EP15TargetInterface
       1439  59E 00111780 _ZN16SerialSSPSecuExtD0Ev
       1440  59F 00111650 _ZN16SerialSSPSecuExtD1Ev
       1441  5A0 00111650 _ZN16SerialSSPSecuExtD2Ev
       1442  5A1 002C9C90 _ZN16bitConfiguartionC1ERKS_
       1443  5A2 00155D10 _ZN17BlankCheckManager16checkBlankMemoryEv
       1444  5A3 00155CF0 _ZN17BlankCheckManagerC1EP10DisplayMngP15TargetInterface
       1445  5A4 00155CF0 _ZN17BlankCheckManagerC2EP10DisplayMngP15TargetInterface
       1446  5A5 00155D00 _ZN17BlankCheckManagerD1Ev
       1447  5A6 00155D00 _ZN17BlankCheckManagerD2Ev
       1448  5A7 002C9E80 _ZN17QArrayDataPointerI10QByteArrayE13detachAndGrowEN10QArrayData14GrowthPositionExPPKS0_PS1_
       1449  5A8 002CA030 _ZN17QArrayDataPointerI10QByteArrayE17reallocateAndGrowEN10QArrayData14GrowthPositionExPS1_
       1450  5A9 002CA510 _ZN17QArrayDataPointerI10QByteArrayE6detachEPS1_
       1451  5AA 002CA540 _ZN17QArrayDataPointerI10QByteArrayED1Ev
       1452  5AB 002CA5B0 _ZN17QArrayDataPointerI15QSerialPortInfoE12allocateGrowERKS1_xN10QArrayData14GrowthPositionE
       1453  5AC 002CA720 _ZN17QArrayDataPointerI15QSerialPortInfoE17reallocateAndGrowEN10QArrayData14GrowthPositionExPS1_
       1454  5AD 002CA970 _ZN17QArrayDataPointerI15QSerialPortInfoED1Ev
       1455  5AE 002CA9D0 _ZN17QArrayDataPointerI5QListIjEE17reallocateAndGrowEN10QArrayData14GrowthPositionExPS2_
       1456  5AF 002CAEB0 _ZN17QArrayDataPointerI5QListIjEE6detachEPS2_
       1457  5B0 002CAEE0 _ZN17QArrayDataPointerI5QListIjEED1Ev
       1458  5B1 002CAF50 _ZN17QArrayDataPointerI7QStringE13detachAndGrowEN10QArrayData14GrowthPositionExPPKS0_PS1_
       1459  5B2 002CB100 _ZN17QArrayDataPointerI7QStringE17reallocateAndGrowEN10QArrayData14GrowthPositionExPS1_
       1460  5B3 002CB5E0 _ZN17QArrayDataPointerI7QStringE6detachEPS1_
       1461  5B4 002CB610 _ZN17QArrayDataPointerI7QStringEC1ERKS1_
       1462  5B5 002CB630 _ZN17QArrayDataPointerI7QStringED1Ev
       1463  5B6 002CB6A0 _ZN17QArrayDataPointerI8QVariantE17reallocateAndGrowEN10QArrayData14GrowthPositionExPS1_
       1464  5B7 002CBB90 _ZN17QArrayDataPointerI8QVariantED1Ev
       1465  5B8 002CBC00 _ZN17QArrayDataPointerIDsEC1ERKS0_
       1466  5B9 002CBC20 _ZN17QArrayDataPointerIDsED1Ev
       1467  5BA 002CBC40 _ZN17QArrayDataPointerISt4pairI7QStringS1_EE17reallocateAndGrowEN10QArrayData14GrowthPositionExPS3_
       1468  5BB 002CC1A0 _ZN17QArrayDataPointerISt4pairI7QStringS1_EED1Ev
       1469  5BC 002CC230 _ZN17QArrayDataPointerISt4pairIiiEE17reallocateAndGrowEN10QArrayData14GrowthPositionExPS2_
       1470  5BD 002CC620 _ZN17QArrayDataPointerISt4pairIiiEED1Ev
       1471  5BE 002CC640 _ZN17QArrayDataPointerIcED1Ev
       1472  5BF 002CC660 _ZN17QArrayDataPointerIhE13detachAndGrowEN10QArrayData14GrowthPositionExPPKhPS0_
       1473  5C0 002CC7C0 _ZN17QArrayDataPointerIhE17reallocateAndGrowEN10QArrayData14GrowthPositionExPS0_
       1474  5C1 002CCBA0 _ZN17QArrayDataPointerIhED1Ev
       1475  5C2 002CCBC0 _ZN17QArrayDataPointerIiE17reallocateAndGrowEN10QArrayData14GrowthPositionExPS0_
       1476  5C3 002CCFB0 _ZN17QArrayDataPointerIiED1Ev
       1477  5C4 002CCFD0 _ZN17QArrayDataPointerIjE17reallocateAndGrowEN10QArrayData14GrowthPositionExPS0_
       1478  5C5 002CD330 _ZN17QArrayDataPointerIjED1Ev
       1479  5C6 002CD350 _ZN17QArrayDataPointerIjEaSERKS0_
       1480  5C7 000F4030 _ZN18FastRomDataGateWay10GetCPUTypeE15GenInformations
       1481  5C8 000FBBC0 _ZN18FastRomDataGateWay11GetOBConfigEhh
       1482  5C9 000F8EB0 _ZN18FastRomDataGateWay11checkDeviceEt
       1483  5CA 000F3D20 _ZN18FastRomDataGateWay12deleteParserEv
       1484  5CB 000F3F20 _ZN18FastRomDataGateWay13GetAccessTypeE12ConfigPeriph
       1485  5CC 000F3E90 _ZN18FastRomDataGateWay13GetAccessTypeE13StoragePeriph
       1486  5CD 000F4150 _ZN18FastRomDataGateWay13GetAccessTypeE3Bit
       1487  5CE 000F6CC0 _ZN18FastRomDataGateWay13GetConfigBankE10ConfigBank
       1488  5CF 000F72A0 _ZN18FastRomDataGateWay13GetConfigconfE16ConfigConfPeriph
       1489  5D0 000F4000 _ZN18FastRomDataGateWay13GetDeviceTypeE15GenInformations
       1490  5D1 000F4240 _ZN18FastRomDataGateWay14CheckDataStateEv
       1491  5D2 000F59A0 _ZN18FastRomDataGateWay14CloneConfigBitE3BitRSt6vectorI16bitConfiguartionSaIS2_EE
       1492  5D3 000F3E40 _ZN18FastRomDataGateWay14GetStorageTypeE12ConfigPeriph
       1493  5D4 000F3D60 _ZN18FastRomDataGateWay14GetStorageTypeE13StoragePeriph
       1494  5D5 000F63D0 _ZN18FastRomDataGateWay15GetConfigSectorE12ConfigSector
       1495  5D6 000FB2C0 _ZN18FastRomDataGateWay16GetConfigeDeviceER13GenericDevicehh
       1496  5D7 000FB710 _ZN18FastRomDataGateWay16GetConfigeDeviceEhh
       1497  5D8 000F4FE0 _ZN18FastRomDataGateWay16GetStorageConfigE13StoragePeriph
       1498  5D9 000F4A40 _ZN18FastRomDataGateWay17CloneStorageBanksESt6vectorI11StorageBankSaIS1_EE
       1499  5DA 000F64F0 _ZN18FastRomDataGateWay17GetConfigCategoryE14ConfigCategory
       1500  5DB 000F8F70 _ZN18FastRomDataGateWay17GetConfigurationsE13InterfaceType
       1501  5DC 000FB740 _ZN18FastRomDataGateWay17GetPConfigeDeviceER13GenericDevicehh
       1502  5DD 000FBBA0 _ZN18FastRomDataGateWay17GetPConfigeDeviceEhh
       1503  5DE 000F82A0 _ZN18FastRomDataGateWay18CloneGenericDeviceEP6Device
       1504  5DF 000F7470 _ZN18FastRomDataGateWay19GetConfigPeripheralE12ConfigPeriph
       1505  5E0 000F3FB0 _ZN18FastRomDataGateWay19GetOrganizationTypeE13StorageConfig
       1506  5E1 000F4250 _ZN18FastRomDataGateWay23CloneGenralInformationsEP6Device
       1507  5E2 000F9680 _ZN18FastRomDataGateWay23GetConfigeConfigurationER23ConfigurationPeripheralhh
       1508  5E3 000F41E0 _ZN18FastRomDataGateWay23GetStorageConfigurationER17StoragePeripheralh
       1509  5E4 000F8910 _ZN18FastRomDataGateWayC1Etb
       1510  5E5 000F8910 _ZN18FastRomDataGateWayC2Etb
       1511  5E6 000F49A0 _ZN18FastRomDataGateWayD1Ev
       1512  5E7 000F49A0 _ZN18FastRomDataGateWayD2Ev
       1513  5E8 000E42B0 _ZN18FastRomOptionBytes12getValueLineENSt7__cxx1112basic_stringIcSt11char_traitsIcESaIcEEERj
       1514  5E9 000E3FD0 _ZN18FastRomOptionBytes13getOByteValueENSt7__cxx1112basic_stringIcSt11char_traitsIcESaIcEEERj
       1515  5EA 000E3E90 _ZN18FastRomOptionBytes18getOptionBytesDataEt
       1516  5EB 000E3E60 _ZN18FastRomOptionBytesC1EP10DisplayMng
       1517  5EC 000E3E60 _ZN18FastRomOptionBytesC2EP10DisplayMng
       1518  5ED 000E3E80 _ZN18FastRomOptionBytesD1Ev
       1519  5EE 000E3E80 _ZN18FastRomOptionBytesD2Ev
       1520  5EF 000C1DB0 _ZN18TranslationManager14initTranslatorEv
       1521  5F0 000C15B0 _ZN18TranslationManager16getTranslateFileE7QString
       1522  5F1 000C1910 _ZN18TranslationManager16translateMessageE7QString
       1523  5F2 000C1550 _ZN18TranslationManager17getConfigFilePathEv
       1524  5F3 000C1540 _ZN18TranslationManager17initCurrentLocaleE7QString
       1525  5F4 000C1A70 _ZN18TranslationManager18getCurrentLanguageEv
       1526  5F5 000C1530 _ZN18TranslationManager23setTranslationFilesPathERK7QString
       1527  5F6 000C23A0 _ZN18TranslationManagerC1Ev
       1528  5F7 000C23A0 _ZN18TranslationManagerC2Ev
       1529  5F8 00051560 _ZN19BootloaderInterface10editMemoryEjPhj
       1530  5F9 00050B80 _ZN19BootloaderInterface11eraseMemoryEjj
       1531  5FA 0049CB60 _ZN19BootloaderInterface11isSerialUSBE
       1532  5FB 0004FF20 _ZN19BootloaderInterface11swapSectorsEtPt
       1533  5FC 0004FD20 _ZN19BootloaderInterface12binarySearchEjjjP8FileTypej
       1534  5FD 0004FCE0 _ZN19BootloaderInterface15compareCheckSumEjjPjj
       1535  5FE 0004FCD0 _ZN19BootloaderInterface17isChecksumPresentEj
       1536  5FF 000503A0 _ZN19BootloaderInterface18flashSizeAlgorithmEP15TargetInterfacejj
       1537  600 0004FD10 _ZN19BootloaderInterface18isFileExceedMemoryEjj
       1538  601 0004FD10 _ZN19BootloaderInterface20getTableOfSectorSizeEjj
       1539  602 00050AA0 _ZN19BootloaderInterface20isFlashSizeSupportedEP15TargetInterface
       1540  603 0004FCF0 _ZN19BootloaderInterface21getSectorSizeCheckSumEj
       1541  604 00050B20 _ZN19BootloaderInterface22changeTheSecureAddressEPj
       1542  605 0004FD00 _ZN19BootloaderInterface22verifyDownloadCheckSumEP8FileType
       1543  606 00050080 _ZN19BootloaderInterface24LoadSecondaryBootLaoaderEv
       1544  607 0004FCF0 _ZN19BootloaderInterface29getStartSectorAddressCheckSumEj
       1545  608 000504E0 _ZN19BootloaderInterface8checksumE10QByteArray
       1546  609 0004FCC0 _ZN19BootloaderInterface8getAPnbrEv
       1547  60A 00050520 _ZN19BootloaderInterface8getErrorE9BLIStatus
       1548  60B 0004FD70 _ZN19BootloaderInterfaceC1Ev
       1549  60C 0004FD70 _ZN19BootloaderInterfaceC2Ev
       1550  60D 0004FEA0 _ZN19BootloaderInterfaceD0Ev
       1551  60E 0004FE20 _ZN19BootloaderInterfaceD1Ev
       1552  60F 0004FE20 _ZN19BootloaderInterfaceD2Ev
       1553  610 002CD3B0 _ZN19DeviceConfigurationD1Ev
       1554  611 00154960 _ZN20FillingMemoryManager10fillMemoryEb
       1555  612 00155340 _ZN20FillingMemoryManager14initParametersE7QStringS0_S0_S0_
       1556  613 00154760 _ZN20FillingMemoryManager17checkPatternValueE7QString
       1557  614 00155A50 _ZN20FillingMemoryManagerC1E7QStringS0_S0_S0_P10DisplayMngP15TargetInterface
       1558  615 00155A50 _ZN20FillingMemoryManagerC2E7QStringS0_S0_S0_P10DisplayMngP15TargetInterface
       1559  616 00154740 _ZN20FillingMemoryManagerD1Ev
       1560  617 00154740 _ZN20FillingMemoryManagerD2Ev
       1561  618 000BB560 _ZN20OptionBytesInterface10InitOBDataEh
       1562  619 000B2F80 _ZN20OptionBytesInterface10MatchsValsE5OBcmdP3bith
       1563  61A 000BBC30 _ZN20OptionBytesInterface10unlockChipEv
       1564  61B 000B2F10 _ZN20OptionBytesInterface11DisplayBankE5CBankj
       1565  61C 000B2550 _ZN20OptionBytesInterface11DisplayBitsEP3bitj
       1566  61D 000B3EA0 _ZN20OptionBytesInterface11WriteOBCmdsERSt6vectorI5OBcmdSaIS1_EEh
       1567  61E 000B0790 _ZN20OptionBytesInterface12GetBitsValueEjjj
       1568  61F 000B0600 _ZN20OptionBytesInterface12GetValueDescB5cxx11EP3bitj
       1569  620 000B0760 _ZN20OptionBytesInterface12GetWordValueEPhj
       1570  621 000B9AA0 _ZN20OptionBytesInterface12UploadOBDataEh
       1571  622 000B3430 _ZN20OptionBytesInterface12verifyDnloadERSt6vectorI5OBcmdSaIS1_EEh
       1572  623 000B5F40 _ZN20OptionBytesInterface13CheckBitNamesERSt6vectorI5OBcmdSaIS1_EEh
       1573  624 000B07C0 _ZN20OptionBytesInterface13CheckEmptyCatER9CCategory
       1574  625 000B0960 _ZN20OptionBytesInterface13WriteOBitsCmdEPPh5OBcmd
       1575  626 000B1EA0 _ZN20OptionBytesInterface13getOByteValueENSt7__cxx1112basic_stringIcSt11char_traitsIcESaIcEEERj
       1576  627 000B0810 _ZN20OptionBytesInterface14CheckEmptyBankER5CBank
       1577  628 000BCBA0 _ZN20OptionBytesInterface14ExecuteProgCmdE7QStringh
       1578  629 000B0570 _ZN20OptionBytesInterface14UpdateOBStatusE12OBOperations
       1579  62A 000B0920 _ZN20OptionBytesInterface15WriteBitsInWordERj5OBcmd
       1580  62B 000B3B00 _ZN20OptionBytesInterface15fillUpdatedDataERSt6vectorI6UpDataSaIS1_EEP8FileData
       1581  62C 000B7C00 _ZN20OptionBytesInterface16ChecksBitsWRangeER7QStringRSt6vectorI5OBcmdSaIS3_EE
       1582  62D 000B7520 _ZN20OptionBytesInterface16ChecksSimpleBitsER7QStringRSt6vectorI5OBcmdSaIS3_EE
       1583  62E 000BB7D0 _ZN20OptionBytesInterface19ReconnectAfterResetE7QString
       1584  62F 000B3CB0 _ZN20OptionBytesInterface19eliminateDuplicatesERSt6vectorI5OBcmdSaIS1_EEh
       1585  630 000B1AF0 _ZN20OptionBytesInterface19rdpRegressionForBeeEv
       1586  631 000B14D0 _ZN20OptionBytesInterface19setTarget_InterfaceEP15TargetInterface
       1587  632 000B2390 _ZN20OptionBytesInterface19tzenRegressionForU5Ev
       1588  633 000B2220 _ZN20OptionBytesInterface21setRssExecuteCmdViaBlEhh
       1589  634 000B1C90 _ZN20OptionBytesInterface23securityDisablingForBeeEv
       1590  635 000B04F0 _ZN20OptionBytesInterface24FreeOptionBytesInterfaceEv
       1591  636 000BB710 _ZN20OptionBytesInterface24InitOptionBytesInterfaceEP15TargetInterfaceP11DataGateWayh
       1592  637 000B0A70 _ZN20OptionBytesInterface25WriteObWithoutFlashLoaderEjPcj
       1593  638 000B1160 _ZN20OptionBytesInterface27WriteObWithoutFlashLoaderH5EjPcj
       1594  639 000BC5B0 _ZN20OptionBytesInterface29programViperSecureOptionBytesE7QStringh
       1595  63A 000B9250 _ZN20OptionBytesInterface31checkProductStateCmdOptionBytesE7QString
       1596  63B 000B19D0 _ZN20OptionBytesInterface3IsWEj
       1597  63C 000B1A30 _ZN20OptionBytesInterface4IsF3Ej
       1598  63D 000B1A60 _ZN20OptionBytesInterface4IsG0Ej
       1599  63E 000B1990 _ZN20OptionBytesInterface4IsH5Ej
       1600  63F 000B1AB0 _ZN20OptionBytesInterface4IsK0Ej
       1601  640 000B1510 _ZN20OptionBytesInterface4IsL0Ej
       1602  641 000B14E0 _ZN20OptionBytesInterface4IsL1Ej
       1603  642 000B1550 _ZN20OptionBytesInterface4IsL4Ej
       1604  643 000B1590 _ZN20OptionBytesInterface4IsL5Ej
       1605  644 000B1AC0 _ZN20OptionBytesInterface4IsU0Ej
       1606  645 000B1AE0 _ZN20OptionBytesInterface4IsV8Ej
       1607  646 000B19C0 _ZN20OptionBytesInterface6IsH7RSEj
       1608  647 000B8660 _ZN20OptionBytesInterface7GetBitsER7QString
       1609  648 000B1A00 _ZN20OptionBytesInterface7IsFZeroEj
       1610  649 000B08F0 _ZN20OptionBytesInterface7getMaskEjj
       1611  64A 000B0D60 _ZN20OptionBytesInterface8InitH5OBEb
       1612  64B 000B1620 _ZN20OptionBytesInterface8OBLaunchEjj
       1613  64C 000BA710 _ZN20OptionBytesInterface9DisplayOBEv
       1614  64D 000B08B0 _ZN20OptionBytesInterface9WriteWordEPPhjj
       1615  64E 000B1E30 _ZN20OptionBytesInterface9isDualBeeEP15TargetInterface
       1616  64F 002CD580 _ZN20OptionBytesInterfaceC1Ev
       1617  650 0010FCF0 _ZN20USBSecurityExtension10SetLicenseEPh
       1618  651 0010D5B0 _ZN20USBSecurityExtension11GetSecStateEv
       1619  652 0010F970 _ZN20USBSecurityExtension11SecureWriteE10QByteArray
       1620  653 0010ECC0 _ZN20USBSecurityExtension11authKeyLockEv
       1621  654 0010DF10 _ZN20USBSecurityExtension11getRSSstateEPhS0_
       1622  655 0010E0F0 _ZN20USBSecurityExtension11getkeyIndexEv
       1623  656 001101C0 _ZN20USBSecurityExtension12SetWriteModeEPh
       1624  657 00110B00 _ZN20USBSecurityExtension12programSFIv1EP8FileDataP7FileSFI5QListI7QStringE
       1625  658 0010D8E0 _ZN20USBSecurityExtension12programSMIv1EP8FileDataS1_
       1626  659 00110450 _ZN20USBSecurityExtension13GetSecVersionEv
       1627  65A 0010F800 _ZN20USBSecurityExtension13PrepareBufferEPhhj
       1628  65B 0010EA80 _ZN20USBSecurityExtension13authKeyUpdateEP8FileData
       1629  65C 0010D570 _ZN20USBSecurityExtension14GetCertificateEPP8FileData
       1630  65D 0010F0E0 _ZN20USBSecurityExtension14firmwareDeleteEv
       1631  65E 0010F590 _ZN20USBSecurityExtension15firmwareUpgradeEjj
       1632  65F 0010F380 _ZN20USBSecurityExtension15writeUserKeyAESEh
       1633  660 0010E7F0 _ZN20USBSecurityExtension15writeUserKeyMEMEP8FileData
       1634  661 0010FB40 _ZN20USBSecurityExtension17PrepareBufferDoryEPhhj
       1635  662 00110610 _ZN20USBSecurityExtension17ReadOutProtectionEv
       1636  663 0010EED0 _ZN20USBSecurityExtension18startWirelessStackEv
       1637  664 0010DCE0 _ZN20USBSecurityExtension19waitForFWupgradeENDEj
       1638  665 0010DAC0 _ZN20USBSecurityExtension19waitForRSSIDLEstateEj
       1639  666 0010FAF0 _ZN20USBSecurityExtension24PrepareBufferDoryUserKeyEPhhj
       1640  667 0010E5E0 _ZN20USBSecurityExtension5AbortEv
       1641  668 0010D740 _ZN20USBSecurityExtension8StartSMIEjj
       1642  669 0010E340 _ZN20USBSecurityExtension8getUID64Ev
       1643  66A 0010FB90 _ZN20USBSecurityExtension9SetImgHdrEPh
       1644  66B 0010F850 _ZN20USBSecurityExtension9StartAreaEPhj
       1645  66C 0010F7E0 _ZN20USBSecurityExtensionC1EP15TargetInterface
       1646  66D 0010F7E0 _ZN20USBSecurityExtensionC2EP15TargetInterface
       1647  66E 0010D540 _ZN20USBSecurityExtensionD0Ev
       1648  66F 0010D530 _ZN20USBSecurityExtensionD1Ev
       1649  670 0010D530 _ZN20USBSecurityExtensionD2Ev
       1650  671 00138940 _ZN22AbstractFlashLoaderMng14getStorageInfoEP11CElfHandlerP11StorageInfo
       1651  672 00138700 _ZN22AbstractFlashLoaderMng23ElfGetSectorAddrFromIdxEjP11StorageInfo
       1652  673 001386B0 _ZN22AbstractFlashLoaderMng23ElfGetSectorAddrFromIdxEjP11StorageInfob
       1653  674 00138640 _ZN22AbstractFlashLoaderMng23ElfGetSectorIdxFromAddrEjP11StorageInfo
       1654  675 00138740 _ZN22AbstractFlashLoaderMng23ElfGetSectorSizeFromIdxEjP11StorageInfo
       1655  676 001387A0 _ZN22AbstractFlashLoaderMng24ElfGetSectorSizeFromAddrEjP11StorageInfo
       1656  677 001388D0 _ZN22AbstractFlashLoaderMngC1Ev
       1657  678 001388D0 _ZN22AbstractFlashLoaderMngC2Ev
       1658  679 00138880 _ZN22AbstractFlashLoaderMngD0Ev
       1659  67A 00138850 _ZN22AbstractFlashLoaderMngD1Ev
       1660  67B 00138850 _ZN22AbstractFlashLoaderMngD2Ev
       1661  67C 0014BDA0 _ZN22SecurityExtRSSeOneShot11SetRSSeAddrEjj
       1662  67D 0014C1A0 _ZN22SecurityExtRSSeOneShot11installAreaE10QByteArrayj
       1663  67E 0014BE30 _ZN22SecurityExtRSSeOneShot11installRSSeENSt7__cxx1112basic_stringIwSt11char_traitsIwESaIwEEEj
       1664  67F 0014D600 _ZN22SecurityExtRSSeOneShot12programSFIv2EP8FileDataP7FileSFI5QListI7QStringES5_S5_S5_
       1665  680 0014CC20 _ZN22SecurityExtRSSeOneShot13GetRssVersionEv
       1666  681 0014C710 _ZN22SecurityExtRSSeOneShot13setRssVersionEj
       1667  682 0014C670 _ZN22SecurityExtRSSeOneShot14GetCertificateEPP8FileData
       1668  683 0014C000 _ZN22SecurityExtRSSeOneShot14installLicenseEP8FileDataj
       1669  684 0014CAB0 _ZN22SecurityExtRSSeOneShot16SetRSSexecuteCMDEjjj
       1670  685 0014C0D0 _ZN22SecurityExtRSSeOneShot18installImageHeaderEP7FileSFIj
       1671  686 0014C720 _ZN22SecurityExtRSSeOneShot19GetSTM32_descriptorEv
       1672  687 0014CEC0 _ZN22SecurityExtRSSeOneShot21ReconnectAfterResetv2E7QString
       1673  688 0014C940 _ZN22SecurityExtRSSeOneShot21setRssExecuteCmdViaBlEhh
       1674  689 0014C270 _ZN22SecurityExtRSSeOneShot22setRssExecuteCmdViaDbgEjjj
       1675  68A 0014BD60 _ZN22SecurityExtRSSeOneShot24GetSTM32_descriptor_AddrEjRj
       1676  68B 0014D080 _ZN22SecurityExtRSSeOneShot8SetObCmdE7QString
       1677  68C 0014BD30 _ZN22SecurityExtRSSeOneShotC1EP15TargetInterface
       1678  68D 0014BD30 _ZN22SecurityExtRSSeOneShotC2EP15TargetInterface
       1679  68E 0014BD50 _ZN22SecurityExtRSSeOneShotD1Ev
       1680  68F 0014BD50 _ZN22SecurityExtRSSeOneShotD2Ev
       1681  690 001569C0 _ZN23CompareFlashFileManager15compareTwoFilesEPP19differentDataValuesPcS3_i
       1682  691 00157C40 _ZN23CompareFlashFileManager21compareMemoryWithFileEPP19differentDataValuesPcS3_i
       1683  692 00156480 _ZN23CompareFlashFileManager8readFileEPcRiRjS1_PP8FileData
       1684  693 00156460 _ZN23CompareFlashFileManagerC1EP10DisplayMngP15TargetInterfaceP11FileManager
       1685  694 00156460 _ZN23CompareFlashFileManagerC2EP10DisplayMngP15TargetInterfaceP11FileManager
       1686  695 00156470 _ZN23CompareFlashFileManagerD1Ev
       1687  696 00156470 _ZN23CompareFlashFileManagerD2Ev
       1688  697 002CD630 _ZN23ConfigurationPeripheralD1Ev
       1689  698 000E29D0 _ZN23SerialSecurityExtension10SetLicenseE10QByteArray
       1690  699 000DFE70 _ZN23SerialSecurityExtension11GetSecStateEv
       1691  69A 000E01E0 _ZN23SerialSecurityExtension11ReadProtectEj
       1692  69B 000E0690 _ZN23SerialSecurityExtension11SecureWriteE10QByteArray
       1693  69C 000E0F10 _ZN23SerialSecurityExtension11authKeyLockEv
       1694  69D 000E0D30 _ZN23SerialSecurityExtension11getRSSstateEPhS0_
       1695  69E 000DFFE0 _ZN23SerialSecurityExtension12SetWriteModeEh
       1696  69F 000E2F20 _ZN23SerialSecurityExtension12programSFIv1EP8FileDataP7FileSFI5QListI7QStringE
       1697  6A0 000DFC80 _ZN23SerialSecurityExtension12programSMIv1EP8FileDataS1_
       1698  6A1 000E1970 _ZN23SerialSecurityExtension13authKeyUpdateEP8FileData
       1699  6A2 000DFC40 _ZN23SerialSecurityExtension14GetCertificateEPP8FileData
       1700  6A3 000E2CC0 _ZN23SerialSecurityExtension14firmwareDeleteEv
       1701  6A4 000E16E0 _ZN23SerialSecurityExtension15firmwareUpgradeEjj
       1702  6A5 000E0BE0 _ZN23SerialSecurityExtension15usartSendPacketE10QByteArray
       1703  6A6 000E10E0 _ZN23SerialSecurityExtension15writeUserKeyAESEh
       1704  6A7 000E1BF0 _ZN23SerialSecurityExtension15writeUserKeyMEMEP8FileData
       1705  6A8 000E0930 _ZN23SerialSecurityExtension17L4LastSecureWriteE10QByteArray
       1706  6A9 000E12D0 _ZN23SerialSecurityExtension18startWirelessStackEv
       1707  6AA 000E27F0 _ZN23SerialSecurityExtension19waitForFWupgradeENDEj
       1708  6AB 000E25E0 _ZN23SerialSecurityExtension19waitForRSSIDLEstateEj
       1709  6AC 000E2100 _ZN23SerialSecurityExtension5AbortEv
       1710  6AD 000E23D0 _ZN23SerialSecurityExtension8StartSMIEjj
       1711  6AE 000E1E60 _ZN23SerialSecurityExtension8getUID64Ev
       1712  6AF 000E0470 _ZN23SerialSecurityExtension9SetImgHdrE10QByteArray
       1713  6B0 000E14A0 _ZN23SerialSecurityExtension9StartAreaEPhj
       1714  6B1 000E0450 _ZN23SerialSecurityExtensionC1EP15TargetInterface
       1715  6B2 000E0450 _ZN23SerialSecurityExtensionC2EP15TargetInterface
       1716  6B3 000DFC10 _ZN23SerialSecurityExtensionD0Ev
       1717  6B4 000DFC00 _ZN23SerialSecurityExtensionD1Ev
       1718  6B5 000DFC00 _ZN23SerialSecurityExtensionD2Ev
       1719  6B6 002575F0 _ZN27SerialSecurityExtensionRSSe10SetLicenseE10QByteArray
       1720  6B7 00254220 _ZN27SerialSecurityExtensionRSSe11GetSecStateEv
       1721  6B8 00254590 _ZN27SerialSecurityExtensionRSSe11ReadProtectEj
       1722  6B9 002552A0 _ZN27SerialSecurityExtensionRSSe11SecureWriteE10QByteArray
       1723  6BA 00255B20 _ZN27SerialSecurityExtensionRSSe11authKeyLockEv
       1724  6BB 00255940 _ZN27SerialSecurityExtensionRSSe11getRSSstateEPhS0_
       1725  6BC 00254390 _ZN27SerialSecurityExtensionRSSe12SetWriteModeEh
       1726  6BD 002586B0 _ZN27SerialSecurityExtensionRSSe12programSFIv1EP8FileDataP7FileSFI5QListI7QStringE
       1727  6BE 002580F0 _ZN27SerialSecurityExtensionRSSe12programSMIv1EP8FileDataS1_
       1728  6BF 00254E30 _ZN27SerialSecurityExtensionRSSe13GetRssVersionEv
       1729  6C0 00256580 _ZN27SerialSecurityExtensionRSSe13authKeyUpdateEP8FileData
       1730  6C1 002582D0 _ZN27SerialSecurityExtensionRSSe14GetCertificateEPP8FileData
       1731  6C2 00254820 _ZN27SerialSecurityExtensionRSSe14ProgramRSSeSFIENSt7__cxx1112basic_stringIwSt11char_traitsIwESaIwEEEj
       1732  6C3 002578E0 _ZN27SerialSecurityExtensionRSSe14firmwareDeleteEv
       1733  6C4 00254910 _ZN27SerialSecurityExtensionRSSe15SetRSSeLoadAddrEj
       1734  6C5 002562F0 _ZN27SerialSecurityExtensionRSSe15firmwareUpgradeEjj
       1735  6C6 002557F0 _ZN27SerialSecurityExtensionRSSe15usartSendPacketE10QByteArray
       1736  6C7 00255CF0 _ZN27SerialSecurityExtensionRSSe15writeUserKeyAESEh
       1737  6C8 002567F0 _ZN27SerialSecurityExtensionRSSe15writeUserKeyMEMEP8FileData
       1738  6C9 00257B40 _ZN27SerialSecurityExtensionRSSe16ActivateSecurityEv
       1739  6CA 00254A70 _ZN27SerialSecurityExtensionRSSe16SetRSSeRslt_AddrEj
       1740  6CB 00255540 _ZN27SerialSecurityExtensionRSSe17L4LastSecureWriteE10QByteArray
       1741  6CC 002549C0 _ZN27SerialSecurityExtensionRSSe17SetRSSeParam_AddrEj
       1742  6CD 00255EE0 _ZN27SerialSecurityExtensionRSSe18startWirelessStackEv
       1743  6CE 00254B20 _ZN27SerialSecurityExtensionRSSe19GetSTM32_descriptorEv
       1744  6CF 00258030 _ZN27SerialSecurityExtensionRSSe19RSSeSFIinstallationENSt7__cxx1112basic_stringIwSt11char_traitsIwESaIwEEEj
       1745  6D0 00257400 _ZN27SerialSecurityExtensionRSSe19waitForFWupgradeENDEj
       1746  6D1 002571E0 _ZN27SerialSecurityExtensionRSSe19waitForRSSIDLEstateEj
       1747  6D2 00256D00 _ZN27SerialSecurityExtensionRSSe5AbortEv
       1748  6D3 00256FD0 _ZN27SerialSecurityExtensionRSSe8StartSMIEjj
       1749  6D4 00256A60 _ZN27SerialSecurityExtensionRSSe8getUID64Ev
       1750  6D5 00255080 _ZN27SerialSecurityExtensionRSSe9SetImgHdrE10QByteArray
       1751  6D6 00254C80 _ZN27SerialSecurityExtensionRSSe9SetRssCMDEv
       1752  6D7 002560B0 _ZN27SerialSecurityExtensionRSSe9StartAreaEPhj
       1753  6D8 00254800 _ZN27SerialSecurityExtensionRSSeC1EP15TargetInterface
       1754  6D9 00254800 _ZN27SerialSecurityExtensionRSSeC2EP15TargetInterface
       1755  6DA 00254130 _ZN27SerialSecurityExtensionRSSeD0Ev
       1756  6DB 00254120 _ZN27SerialSecurityExtensionRSSeD1Ev
       1757  6DC 00254120 _ZN27SerialSecurityExtensionRSSeD2Ev
       1758  6DD 002CD920 _ZN3BitC1ERKS_
       1759  6DE 002CDC00 _ZN3BitD1Ev
       1760  6DF 000CCCF0 _ZN3Brg10OpenStlinkEPKcS1_i
       1761  6E0 000CCC00 _ZN3Brg10OpenStlinkEPKci
       1762  6E1 000CE8C0 _ZN3Brg10ReadI2CcmdEPhtt17Brg_I2cRWTransferPtPm
       1763  6E2 000CC960 _ZN3Brg11CloseBridgeEh
       1764  6E3 000CC830 _ZN3Brg11CloseStlinkEv
       1765  6E4 000CEB30 _ZN3Brg11ContReadI2CEPhtPt
       1766  6E5 000CE300 _ZN3Brg11GetRxMsgCANEP13Brg_CanRxMsgTtPhtPt
       1767  6E6 000CD160 _ZN3Brg11SetSPIpinCSE16Brg_SpiNssLevelT
       1768  6E7 000CEB60 _ZN3Brg11StopReadI2CEPhtPt
       1769  6E8 000CEB90 _ZN3Brg11WriteI2CcmdEPhtt17Brg_I2cRWTransferPtPm
       1770  6E9 000CEE90 _ZN3Brg11WriteMsgCANEP13Brg_CanTxMsgTPhh
       1771  6EA 000CEE30 _ZN3Brg12ContWriteI2CEPhtPt
       1772  6EB 000CD3A0 _ZN3Brg12GetI2cTimingE8I2cModeTiiiibPm
       1773  6EC 000CF560 _ZN3Brg12IsCanSupportEv
       1774  6ED 000CF340 _ZN3Brg12SetResetGPIOEhP12Brg_GpioValTPh
       1775  6EE 000CEAE0 _ZN3Brg12StartReadI2CEPht16Brg_I2cAddrModeTtPt
       1776  6EF 000CEAA0 _ZN3Brg12StartReadI2CEPhttPt
       1777  6F0 000CEE60 _ZN3Brg12StopWriteI2CEPhtPt
       1778  6F1 000CCE90 _ZN3Brg13AnalyzeStatusEPKt
       1779  6F2 000CE1F0 _ZN3Brg13GetRxMsgNbCANEPt
       1780  6F3 000CF040 _ZN3Brg13GpioConfFieldE13Brg_GpioConfT
       1781  6F4 000CDDE0 _ZN3Brg13InitFilterCANEP18Brg_CanFilterConfT
       1782  6F5 000CD880 _ZN3Brg13ReadNoWaitI2CEt16Brg_I2cAddrModeTtPtt
       1783  6F6 000CD700 _ZN3Brg13ReadNoWaitI2CEttPtt
       1784  6F7 000CEDE0 _ZN3Brg13StartWriteI2CEPht16Brg_I2cAddrModeTtPt
       1785  6F8 000CEDA0 _ZN3Brg13StartWriteI2CEPhttPt
       1786  6F9 000CC760 _ZN3Brg14GetDeviceInfo2EiP12TDeviceInfo2m
       1787  6FA 000CD8B0 _ZN3Brg14GetReadDataI2CEPht
       1788  6FB 000CF470 _ZN3Brg16GetTargetVoltageEPf
       1789  6FC 000CCBE0 _ZN3Brg16ST_GetVersionExtEP11VERSION_EXT
       1790  6FD 000CF5A0 _ZN3Brg17IsOldBrgFwVersionEv
       1791  6FE 000CE050 _ZN3Brg19StopMsgReceptionCANEv
       1792  6FF 000CDD70 _ZN3Brg20FormatFilter16bitCANEP15Brg_FilterBitsTPh
       1793  700 000CDCE0 _ZN3Brg20FormatFilter32bitCANEP15Brg_FilterBitsTPh
       1794  701 000CC820 _ZN3Brg20SetOpenModeExclusiveEb
       1795  702 000CE120 _ZN3Brg20StartMsgReceptionCANEv
       1796  703 000CD530 _ZN3Brg21CalculateI2cTimingRegE8I2cModeTidiiibPm
       1797  704 000CC720 _ZN3Brg21EnumerateDevInterfaceEPKcPii
       1798  705 000CDB70 _ZN3Brg21GetCANbaudratePrescalEP19Brg_CanBitTimeConfTmPmS2_
       1799  706 000CD000 _ZN3Brg21GetSPIbaudratePrescalEmP16Brg_SpiBaudrateTPm
       1800  707 000CE550 _ZN3Brg22GetLastReadWriteStatusEPtPm
       1801  708 000CF580 _ZN3Brg22IsReadNoWaitI2CSupportEv
       1802  709 000CC860 _ZN3Brg27SendRequestAndAnalyzeStatusEP14TDeviceRequestPKtt
       1803  70A 000CC6F0 _ZN3Brg31EnumerateDevInterfaceIfRequiredEPKcPiii
       1804  70B 000CCED0 _ZN3Brg6GetClkEhPmS0_
       1805  70C 000CD9C0 _ZN3Brg7InitCANEP12Brg_CanInitT13Brg_InitTypeT
       1806  70D 000CD5A0 _ZN3Brg7InitI2CEP12Brg_I2cInitT
       1807  70E 000CD210 _ZN3Brg7InitSPIEP12Brg_SpiInitT
       1808  70F 000CEA50 _ZN3Brg7ReadI2CEPht16Brg_I2cAddrModeTtPt
       1809  710 000CEA10 _ZN3Brg7ReadI2CEPhttPt
       1810  711 000CE620 _ZN3Brg7ReadSPIEPhtPt
       1811  712 000CF080 _ZN3Brg8InitGPIOEP13Brg_GpioInitT
       1812  713 000CC6E0 _ZN3Brg8LogTraceEPKcz
       1813  714 000CF210 _ZN3Brg8ReadGPIOEhP12Brg_GpioValTPh
       1814  715 000CED50 _ZN3Brg8WriteI2CEPht16Brg_I2cAddrModeTtPt
       1815  716 000CED10 _ZN3Brg8WriteI2CEPhttPt
       1816  717 000CE730 _ZN3Brg8WriteSPIEPhtPt
       1817  718 000CC660 _ZN3BrgC1Ev
       1818  719 000CC660 _ZN3BrgC2Ev
       1819  71A 000CCAD0 _ZN3BrgD0Ev
       1820  71B 000CCA70 _ZN3BrgD1Ev
       1821  71C 000CCA70 _ZN3BrgD2Ev
       1822  71D 002614D0 _ZN3SDM10openSdmLibEb
       1823  71E 002616C0 _ZN3SDM11pathFixTempEP7QStringS1_
       1824  71F 002613B0 _ZN3SDM12getDiscoveryEv
       1825  720 002613C0 _ZN3SDM12setDiscoveryEv
       1826  721 002652A0 _ZN3SDM15deleteTempFilesE7QStringS0_S0_
       1827  722 002613E0 _ZN3SDM16getDevicePointerEv
       1828  723 002613D0 _ZN3SDM19getDiscoveryPointerEv
       1829  724 00264040 _ZN3SDM5initCE7QStringS0_S0_S0_
       1830  725 00264850 _ZN3SDM5initGE7QStringS0_S0_S0_i
       1831  726 00265550 _ZN3SDM9discoveryEb
       1832  727 00261440 _ZN3SDMC1EP10DisplayMng
       1833  728 00261440 _ZN3SDMC2EP10DisplayMng
       1834  729 001250E0 _ZN3SWV10getSWVDataEv
       1835  72A 001249A0 _ZN3SWV11getInstanceEP15TargetInterface
       1836  72B 00125310 _ZN3SWV11isSupportedEv
       1837  72C 00125230 _ZN3SWV13getPrintfDataEv
       1838  72D 00124A50 _ZN3SWV13resetInstanceEv
       1839  72E 001254A0 _ZN3SWV14openSWVLogFileE7QString
       1840  72F 00125A50 _ZN3SWV15closeSWVLogFileEv
       1841  730 00125430 _ZN3SWV15logReceivedDataE7QString
       1842  731 00125B10 _ZN3SWV16enterConsoleModeE7QString
       1843  732 00125090 _ZN3SWV16restartReceptionEv
       1844  733 001252A0 _ZN3SWV18isDeviceSupportSWVEv
       1845  734 00125260 _ZN3SWV18isStlinkSupportSWVEv
       1846  735 00125FA0 _ZN3SWV18startReceptionAutoE7QString
       1847  736 00125070 _ZN3SWV5closeEv
       1848  737 00124AD0 _ZN3SWV6configEdh
       1849  738 0049E4C0 _ZN3SWV8instanceE
       1850  739 00124A80 _ZN3SWVC1EP15TargetInterface
       1851  73A 00124A80 _ZN3SWVC2EP15TargetInterface
       1852  73B 001250D0 _ZN3SWVD1Ev
       1853  73C 001250D0 _ZN3SWVD2Ev
       1854  73D 002CDCE0 _ZN3bitD1Ev
       1855  73E 002CDD90 _ZN4BankC1ERKS_
       1856  73F 002CDF50 _ZN4Expr11addFunctionEPKcPFdvE
       1857  740 00268910 _ZN4Expr12partialParseERPKcRSt3mapINSt7__cxx1112basic_stringIcSt11char_traitsIcESaIcEEEdSt4lessIS9_ESaISt4pairIKS9_dEEE
       1858  741 002CE160 _ZN4Expr4Init6randomEv
       1859  742 002CE180 _ZN4Expr5ErrorD0Ev
       1860  743 002CE1B0 _ZN4Expr5ErrorD1Ev
       1861  744 004A05B0 _ZN4Expr5func0E
       1862  745 004A0590 _ZN4Expr5func1E
       1863  746 004A0570 _ZN4Expr5func2E
       1864  747 002CE1C0 _ZN4Expr5parseEPKcRSt3mapINSt7__cxx1112basic_stringIcSt11char_traitsIcESaIcEEEdSt4lessIS8_ESaISt4pairIKS8_dEEE
       1865  748 00267060 _ZN4Expr7compileERSt6vectorIiSaIiEERPKcRSt3mapINSt7__cxx1112basic_stringIcSt11char_traitsIcESaIcEEEdSt4lessISD_ESaISt4pairIKSD_dEEEi
       1866  749 004A0540 _ZN4Expr7inlinedB5cxx11E
       1867  74A 004A05E0 _ZN4Expr9functionsB5cxx11E
       1868  74B 004A0530 _ZN4Expr9max_levelE
       1869  74C 004A0500 _ZN4Expr9operatorsB5cxx11E
       1870  74D 002CE2E0 _ZN4ExprD1Ev
       1871  74E 001245D0 _ZN4JDEC14readFromTargetEi
       1872  74F 00124410 _ZN4JDEC14readFromTargetEij
       1873  750 001243B0 _ZN4JDEC5clearEv
       1874  751 00124340 _ZN4JDECC1EP16ST_LINKInterface
       1875  752 00124340 _ZN4JDECC2EP16ST_LINKInterface
       1876  753 001243A0 _ZN4JDECD1Ev
       1877  754 001243A0 _ZN4JDECD2Ev
       1878  755 002CE340 _ZN4QMapI7QString8QVariantE6detachEv
       1879  756 002CE4F0 _ZN4QMapI7QString8QVariantEixERKS0_
       1880  757 002CE9A0 _ZN4QMapI7QStringS0_E6insertERKS0_S3_
       1881  758 002CF000 _ZN4QMapI7QStringS0_EixERKS0_
       1882  759 002CF470 _ZN4QMapIhPKcE6detachEv
       1883  75A 002CF5F0 _ZN4QMapIhPKcE6insertERKhRKS1_
       1884  75B 002CF890 _ZN4QMapIi7QStringE6insertERKiRKS0_
       1885  75C 002CFCC0 _ZN4QMapIiiE6insertERKiS2_
       1886  75D 002D00A0 _ZN4QMapItPKcE6detachEv
       1887  75E 002D0220 _ZN4QMapItPKcE6insertERKtRKS1_
       1888  75F 002D0360 _ZN4QMapItPKcEixERKt
       1889  760 002D0500 _ZN5CBankC1ERKS_
       1890  761 00023E00 _ZN5DbgIf18loadJLinkFunctionsEv
       1891  762 002D0610 _ZN5ELFIO12section_implINS_10Elf32_ShdrEE11append_dataEPKcj
       1892  763 002D08F0 _ZN5ELFIO12section_implINS_10Elf32_ShdrEE11append_dataERKNSt7__cxx1112basic_stringIcSt11char_traitsIcESaIcEEE
       1893  764 002D0910 _ZN5ELFIO12section_implINS_10Elf32_ShdrEE11set_addressEy
       1894  765 002D0930 _ZN5ELFIO12section_implINS_10Elf32_ShdrEE14set_addr_alignEy
       1895  766 002D0950 _ZN5ELFIO12section_implINS_10Elf32_ShdrEE14set_entry_sizeEy
       1896  767 002D0970 _ZN5ELFIO12section_implINS_10Elf32_ShdrEE22set_name_string_offsetEj
       1897  768 002D0990 _ZN5ELFIO12section_implINS_10Elf32_ShdrEE4loadERSt14basic_ifstreamIcSt11char_traitsIcEESt4fposIiE
       1898  769 002D0B10 _ZN5ELFIO12section_implINS_10Elf32_ShdrEE4saveERSt14basic_ofstreamIcSt11char_traitsIcEESt4fposIiES9_
       1899  76A 002D0D40 _ZN5ELFIO12section_implINS_10Elf32_ShdrEE8set_dataEPKcj
       1900  76B 002D0E20 _ZN5ELFIO12section_implINS_10Elf32_ShdrEE8set_dataERKNSt7__cxx1112basic_stringIcSt11char_traitsIcESaIcEEE
       1901  76C 002D0F40 _ZN5ELFIO12section_implINS_10Elf32_ShdrEE8set_infoEj
       1902  76D 002D0F60 _ZN5ELFIO12section_implINS_10Elf32_ShdrEE8set_linkEj
       1903  76E 002D0F80 _ZN5ELFIO12section_implINS_10Elf32_ShdrEE8set_nameENSt7__cxx1112basic_stringIcSt11char_traitsIcESaIcEEE
       1904  76F 002D0F90 _ZN5ELFIO12section_implINS_10Elf32_ShdrEE8set_sizeEy
       1905  770 002D0FB0 _ZN5ELFIO12section_implINS_10Elf32_ShdrEE8set_typeEj
       1906  771 002D0FD0 _ZN5ELFIO12section_implINS_10Elf32_ShdrEE9set_flagsEy
       1907  772 002D0FF0 _ZN5ELFIO12section_implINS_10Elf32_ShdrEE9set_indexEt
       1908  773 002D1000 _ZN5ELFIO12section_implINS_10Elf32_ShdrEED0Ev
       1909  774 002D1060 _ZN5ELFIO12section_implINS_10Elf32_ShdrEED1Ev
       1910  775 002D10B0 _ZN5ELFIO12section_implINS_10Elf64_ShdrEE11append_dataEPKcj
       1911  776 002D13C0 _ZN5ELFIO12section_implINS_10Elf64_ShdrEE11append_dataERKNSt7__cxx1112basic_stringIcSt11char_traitsIcESaIcEEE
       1912  777 002D13E0 _ZN5ELFIO12section_implINS_10Elf64_ShdrEE11set_addressEy
       1913  778 002D1410 _ZN5ELFIO12section_implINS_10Elf64_ShdrEE14set_addr_alignEy
       1914  779 002D1430 _ZN5ELFIO12section_implINS_10Elf64_ShdrEE14set_entry_sizeEy
       1915  77A 002D1450 _ZN5ELFIO12section_implINS_10Elf64_ShdrEE22set_name_string_offsetEj
       1916  77B 002D1470 _ZN5ELFIO12section_implINS_10Elf64_ShdrEE4loadERSt14basic_ifstreamIcSt11char_traitsIcEESt4fposIiE
       1917  77C 002D1600 _ZN5ELFIO12section_implINS_10Elf64_ShdrEE4saveERSt14basic_ofstreamIcSt11char_traitsIcEESt4fposIiES9_
       1918  77D 002D1840 _ZN5ELFIO12section_implINS_10Elf64_ShdrEE8set_dataEPKcj
       1919  77E 002D1970 _ZN5ELFIO12section_implINS_10Elf64_ShdrEE8set_dataERKNSt7__cxx1112basic_stringIcSt11char_traitsIcESaIcEEE
       1920  77F 002D1AE0 _ZN5ELFIO12section_implINS_10Elf64_ShdrEE8set_infoEj
       1921  780 002D1B00 _ZN5ELFIO12section_implINS_10Elf64_ShdrEE8set_linkEj
       1922  781 002D1B20 _ZN5ELFIO12section_implINS_10Elf64_ShdrEE8set_nameENSt7__cxx1112basic_stringIcSt11char_traitsIcESaIcEEE
       1923  782 002D1B30 _ZN5ELFIO12section_implINS_10Elf64_ShdrEE8set_sizeEy
       1924  783 002D1B50 _ZN5ELFIO12section_implINS_10Elf64_ShdrEE8set_typeEj
       1925  784 002D1B70 _ZN5ELFIO12section_implINS_10Elf64_ShdrEE9set_flagsEy
       1926  785 002D1B90 _ZN5ELFIO12section_implINS_10Elf64_ShdrEE9set_indexEt
       1927  786 002D1BA0 _ZN5ELFIO12section_implINS_10Elf64_ShdrEED0Ev
       1928  787 002D1C00 _ZN5ELFIO12section_implINS_10Elf64_ShdrEED1Ev
       1929  788 002D1C50 _ZN5ELFIO12segment_implINS_10Elf32_PhdrEE13set_file_sizeEy
       1930  789 002D1C70 _ZN5ELFIO12segment_implINS_10Elf32_PhdrEE15set_memory_sizeEy
       1931  78A 002D1C90 _ZN5ELFIO12segment_implINS_10Elf32_PhdrEE17add_section_indexEty
       1932  78B 002D1D60 _ZN5ELFIO12segment_implINS_10Elf32_PhdrEE19set_virtual_addressEy
       1933  78C 002D1D80 _ZN5ELFIO12segment_implINS_10Elf32_PhdrEE20set_physical_addressEy
       1934  78D 002D1DA0 _ZN5ELFIO12segment_implINS_10Elf32_PhdrEE4saveERSt14basic_ofstreamIcSt11char_traitsIcEESt4fposIiES9_
       1935  78E 002D1DF0 _ZN5ELFIO12segment_implINS_10Elf32_PhdrEE8set_typeEj
       1936  78F 002D1E10 _ZN5ELFIO12segment_implINS_10Elf32_PhdrEE9set_alignEy
       1937  790 002D1E30 _ZN5ELFIO12segment_implINS_10Elf32_PhdrEE9set_flagsEj
       1938  791 002D1E50 _ZN5ELFIO12segment_implINS_10Elf32_PhdrEE9set_indexEt
       1939  792 002D1E60 _ZN5ELFIO12segment_implINS_10Elf32_PhdrEED0Ev
       1940  793 002D1EB0 _ZN5ELFIO12segment_implINS_10Elf32_PhdrEED1Ev
       1941  794 002D1F00 _ZN5ELFIO12segment_implINS_10Elf64_PhdrEE13set_file_sizeEy
       1942  795 002D1F20 _ZN5ELFIO12segment_implINS_10Elf64_PhdrEE15set_memory_sizeEy
       1943  796 002D1F40 _ZN5ELFIO12segment_implINS_10Elf64_PhdrEE17add_section_indexEty
       1944  797 002D2010 _ZN5ELFIO12segment_implINS_10Elf64_PhdrEE19set_virtual_addressEy
       1945  798 002D2030 _ZN5ELFIO12segment_implINS_10Elf64_PhdrEE20set_physical_addressEy
       1946  799 002D2050 _ZN5ELFIO12segment_implINS_10Elf64_PhdrEE4saveERSt14basic_ofstreamIcSt11char_traitsIcEESt4fposIiES9_
       1947  79A 002D20A0 _ZN5ELFIO12segment_implINS_10Elf64_PhdrEE8set_typeEj
       1948  79B 002D20C0 _ZN5ELFIO12segment_implINS_10Elf64_PhdrEE9set_alignEy
       1949  79C 002D20E0 _ZN5ELFIO12segment_implINS_10Elf64_PhdrEE9set_flagsEj
       1950  79D 002D2100 _ZN5ELFIO12segment_implINS_10Elf64_PhdrEE9set_indexEt
       1951  79E 002D2110 _ZN5ELFIO12segment_implINS_10Elf64_PhdrEED0Ev
       1952  79F 002D2160 _ZN5ELFIO12segment_implINS_10Elf64_PhdrEED1Ev
       1953  7A0 002D21B0 _ZN5ELFIO15elf_header_implINS_10Elf32_EhdrEE10set_os_abiEh
       1954  7A1 002D21C0 _ZN5ELFIO15elf_header_implINS_10Elf32_EhdrEE11set_machineEt
       1955  7A2 002D21E0 _ZN5ELFIO15elf_header_implINS_10Elf32_EhdrEE15set_abi_versionEh
       1956  7A3 002D21F0 _ZN5ELFIO15elf_header_implINS_10Elf32_EhdrEE16set_sections_numEt
       1957  7A4 002D2210 _ZN5ELFIO15elf_header_implINS_10Elf32_EhdrEE16set_segments_numEt
       1958  7A5 002D2230 _ZN5ELFIO15elf_header_implINS_10Elf32_EhdrEE19set_sections_offsetEy
       1959  7A6 002D2250 _ZN5ELFIO15elf_header_implINS_10Elf32_EhdrEE19set_segments_offsetEy
       1960  7A7 002D2270 _ZN5ELFIO15elf_header_implINS_10Elf32_EhdrEE26set_section_name_str_indexEt
       1961  7A8 002D2290 _ZN5ELFIO15elf_header_implINS_10Elf32_EhdrEE4loadERSt14basic_ifstreamIcSt11char_traitsIcEE
       1962  7A9 002D22E0 _ZN5ELFIO15elf_header_implINS_10Elf32_EhdrEE8set_typeEt
       1963  7AA 002D2300 _ZN5ELFIO15elf_header_implINS_10Elf32_EhdrEE9set_entryEy
       1964  7AB 002D2320 _ZN5ELFIO15elf_header_implINS_10Elf32_EhdrEE9set_flagsEj
       1965  7AC 002D2340 _ZN5ELFIO15elf_header_implINS_10Elf32_EhdrEED0Ev
       1966  7AD 002D2350 _ZN5ELFIO15elf_header_implINS_10Elf32_EhdrEED1Ev
       1967  7AE 002D2360 _ZN5ELFIO15elf_header_implINS_10Elf64_EhdrEE10set_os_abiEh
       1968  7AF 002D2370 _ZN5ELFIO15elf_header_implINS_10Elf64_EhdrEE11set_machineEt
       1969  7B0 002D2390 _ZN5ELFIO15elf_header_implINS_10Elf64_EhdrEE15set_abi_versionEh
       1970  7B1 002D23A0 _ZN5ELFIO15elf_header_implINS_10Elf64_EhdrEE16set_sections_numEt
       1971  7B2 002D23C0 _ZN5ELFIO15elf_header_implINS_10Elf64_EhdrEE16set_segments_numEt
       1972  7B3 002D23E0 _ZN5ELFIO15elf_header_implINS_10Elf64_EhdrEE19set_sections_offsetEy
       1973  7B4 002D2400 _ZN5ELFIO15elf_header_implINS_10Elf64_EhdrEE19set_segments_offsetEy
       1974  7B5 002D2420 _ZN5ELFIO15elf_header_implINS_10Elf64_EhdrEE26set_section_name_str_indexEt
       1975  7B6 002D2440 _ZN5ELFIO15elf_header_implINS_10Elf64_EhdrEE4loadERSt14basic_ifstreamIcSt11char_traitsIcEE
       1976  7B7 002D2490 _ZN5ELFIO15elf_header_implINS_10Elf64_EhdrEE8set_typeEt
       1977  7B8 002D24B0 _ZN5ELFIO15elf_header_implINS_10Elf64_EhdrEE9set_entryEy
       1978  7B9 002D24D0 _ZN5ELFIO15elf_header_implINS_10Elf64_EhdrEE9set_flagsEj
       1979  7BA 002D24F0 _ZN5ELFIO15elf_header_implINS_10Elf64_EhdrEED0Ev
       1980  7BB 002D2500 _ZN5ELFIO15elf_header_implINS_10Elf64_EhdrEED1Ev
       1981  7BC 002D2510 _ZN5ELFIO21note_section_accessor15process_sectionEv
       1982  7BD 002D2640 _ZN5ELFIO5elfio25create_mandatory_sectionsEv
       1983  7BE 002D28A0 _ZN5ELFIO5elfio4loadENSt7__cxx1112basic_stringIwSt11char_traitsIwESaIwEEE
       1984  7BF 002D2DB0 _ZN5ELFIO5elfio4loadERKNSt7__cxx1112basic_stringIcSt11char_traitsIcESaIcEEE
       1985  7C0 002D3970 _ZN5ELFIO5elfio8Sections3addERKNSt7__cxx1112basic_stringIcSt11char_traitsIcESaIcEEE
       1986  7C1 002D3C90 _ZN5ELFIO5elfioC1Ev
       1987  7C2 002D3DB0 _ZN5ELFIO5elfioD1Ev
       1988  7C3 00259DB0 _ZN5ObKey13initObMustangEv
       1989  7C4 00259D00 _ZN5ObKey13openObKeyFileENSt7__cxx1112basic_stringIwSt11char_traitsIwESaIwEEEP8FileType
       1990  7C5 00259B90 _ZN5ObKey17loadObKeyToMcuRamENSt7__cxx1112basic_stringIwSt11char_traitsIwESaIwEEE
       1991  7C6 0025E1A0 _ZN5ObKey17provisionObKeyRSSENSt7__cxx1112basic_stringIwSt11char_traitsIwESaIwEEEb
       1992  7C7 0025D030 _ZN5ObKey19GetSTM32_descriptorEv
       1993  7C8 0025DEA0 _ZN5ObKey20call_RSSLIB_SetOBKeyEv
       1994  7C9 0025D6F0 _ZN5ObKey21call_RSSLIB_GetStatusEv
       1995  7CA 0025D610 _ZN5ObKey22call_RSSLIB_GetVersionEv
       1996  7CB 0025CCC0 _ZN5ObKey24GetSTM32_descriptor_AddrEjRj
       1997  7CC 0025B490 _ZN5ObKey24call_RSSLIB_SetOBKey_I2CEP19rssLibSetObKeyError
       1998  7CD 0025A920 _ZN5ObKey24call_RSSLIB_SetOBKey_SPIEP19rssLibSetObKeyError
       1999  7CE 00259A60 _ZN5ObKey24call_RSSLIB_SetOBKey_USBEP19rssLibSetObKeyError
       2000  7CF 00259E60 _ZN5ObKey25call_RSSLIB_SetOBKey_UARTEP19rssLibSetObKeyError
       2001  7D0 0025D830 _ZN5ObKey26call_RSSLIB_SetOBKey_DebugEP19rssLibSetObKeyError
       2002  7D1 0025D1E0 _ZN5ObKey27call_RSSLIB_GetStatus_DebugEP19rssLibSetObKeyError
       2003  7D2 0025D5C0 _ZN5ObKey28call_RSSLIB_GetVersion_DebugEP19rssLibSetObKeyError
       2004  7D3 0025BF40 _ZN5ObKey31call_RSSLIB_SetOBKey_BootloaderEP19rssLibSetObKeyError
       2005  7D4 0025C940 _ZN5ObKey34call_RSSLIB_SetOBKey_Bootloader_GoEP19rssLibSetObKeyError
       2006  7D5 00259DC0 _ZN5ObKey7calcCRCEPjj
       2007  7D6 00259A00 _ZN5ObKeyC1EP15TargetInterface
       2008  7D7 00259A00 _ZN5ObKeyC2EP15TargetInterface
       2009  7D8 002599A0 _ZN5ObKeyD0Ev
       2010  7D9 002595F0 _ZN5ObKeyD1Ev
       2011  7DA 002595F0 _ZN5ObKeyD2Ev
       2012  7DB 002D3E80 _ZN5QListI7QStringE5clearEv
       2013  7DC 002D3FA0 _ZN5QListI7QStringE7replaceExRKS0_
       2014  7DD 002D4090 _ZN5QListI7QStringE7reserveEx
       2015  7DE 002D4210 _ZN5QListIS_IjEE11emplaceBackIJRKS0_EEERS0_DpOT_
       2016  7DF 002D4260 _ZN5QListIS_IjEE5clearEv
       2017  7E0 002D4380 _ZN5QListIiE7reserveEx
       2018  7E1 002D4470 _ZN5QListIjE11emplaceBackIJRjEEES2_DpOT_
       2019  7E2 002D44C0 _ZN5QListIjE5clearEv
       2020  7E3 000D5EC0 _ZN6DbgDev10CloseDbgAPEi
       2021  7E4 000D4410 _ZN6DbgDev10ForceDebugEii
       2022  7E5 000D27F0 _ZN6DbgDev10GetComFreqEhPmS0_S0_
       2023  7E6 000D1DF0 _ZN6DbgDev10JTAG_EnterEi14DbgDev_ApInitT
       2024  7E7 000D7090 _ZN6DbgDev10OpenDeviceEiPKciii
       2025  7E8 000D65D0 _ZN6DbgDev10OpenStlinkEPKcS1_i
       2026  7E9 000D6580 _ZN6DbgDev10OpenStlinkEPKcim
       2027  7EA 000D6BF0 _ZN6DbgDev10OpenTargetEiiiiiii
       2028  7EB 000D2BC0 _ZN6DbgDev10SWIM_EnterEv
       2029  7EC 000D2610 _ZN6DbgDev10SetComFreqEhm
       2030  7ED 000D6080 _ZN6DbgDev11CloseDeviceEi
       2031  7EE 000D0DA0 _ZN6DbgDev11CloseStlinkEv
       2032  7EF 000D5FA0 _ZN6DbgDev11CloseTargetEi
       2033  7F0 000D2FF0 _ZN6DbgDev11ReadIdCodesEPmS0_
       2034  7F1 000D2F50 _ZN6DbgDev11ResetSystemEv
       2035  7F2 000D7CD0 _ZN6DbgDev11SetSoftBKPTEmPti
       2036  7F3 000D7870 _ZN6DbgDev11WriteDftRegEhm
       2037  7F4 000D1D10 _ZN6DbgDev12GetBoardTypeEPm
       2038  7F5 000D1870 _ZN6DbgDev12ReadRegisterEhPmi
       2039  7F6 000D0AE0 _ZN6DbgDev13GetDeviceInfoEiP11TDeviceInfom
       2040  7F7 000D6A60 _ZN6DbgDev13InitStlinkDbgEi
       2041  7F8 000D1B40 _ZN6DbgDev13ST_GetVersionEP11VERSION_EXT
       2042  7F9 000D1A50 _ZN6DbgDev13ST_GetVersionEP7VERSION
       2043  7FA 000D79D0 _ZN6DbgDev13SetBreakpointEmii
       2044  7FB 000D34E0 _ZN6DbgDev13SetFlashPatchEhmi
       2045  7FC 000D3320 _ZN6DbgDev13WriteRegisterEhmi
       2046  7FD 000D5910 _ZN6DbgDev14BlinkSTLinkLedEv
       2047  7FE 000D1750 _ZN6DbgDev14DriveTargetPwrE17DbgDev_TargetPwrT
       2048  7FF 000D0BA0 _ZN6DbgDev14GetDeviceInfo2EiP12TDeviceInfo2m
       2049  800 000D76D0 _ZN6DbgDev14IsOldFwVersionEv
       2050  801 000D2140 _ZN6DbgDev14SetSwClockFreqE13DbgDev_SwClkT
       2051  802 000D4B70 _ZN6DbgDev15ClearBreakpointEmii
       2052  803 000D35B0 _ZN6DbgDev15ClearFlashPatchEh
       2053  804 000D5B60 _ZN6DbgDev15ComputeBoardRpnEPht
       2054  805 000D1F30 _ZN6DbgDev15Get_CurrentModeEv
       2055  806 000D1950 _ZN6DbgDev15ReadDapRegisterEitPm
       2056  807 000D3A20 _ZN6DbgDev15ReadMemory_8BitEmPhtPmi
       2057  808 000D49C0 _ZN6DbgDev15RestoreSoftBKPTEmti
       2058  809 000D4200 _ZN6DbgDev15SelectMcoOutputE14DbgDev_McoSelT
       2059  80A 000D4FE0 _ZN6DbgDev15TargetHardResetEh
       2060  80B 000CF870 _ZN6DbgDev15isDiskRuleEval1EPKc
       2061  80C 000CF910 _ZN6DbgDev15isDiskRuleEval2EPKc
       2062  80D 000D68D0 _ZN6DbgDev16GetTargetVoltageEPf
       2063  80E 000D30C0 _ZN6DbgDev16ReadAllRegistersEi
       2064  80F 000D3220 _ZN6DbgDev16ReadFpuRegistersEi
       2065  810 000D38A0 _ZN6DbgDev16ReadMemory_16BitEmPhtPmi
       2066  811 000D3760 _ZN6DbgDev16ReadMemory_32BitEmPhtPmib
       2067  812 000D1C40 _ZN6DbgDev16ST_GetVersionExtEP11VERSION_EXT
       2068  813 000D2E90 _ZN6DbgDev16SetCoreDebugModeEi
       2069  814 000D2650 _ZN6DbgDev16SetJtagClockFreqE15DbgDev_JtagClkT
       2070  815 000D2030 _ZN6DbgDev16SwitchSTLinkFreqEhPm
       2071  816 000D1120 _ZN6DbgDev16WaitForPowerDownEv
       2072  817 000D33F0 _ZN6DbgDev16WriteDapRegisterEitm
       2073  818 000D40E0 _ZN6DbgDev16WriteMemory_8BitEmPhtPmi
       2074  819 000CF700 _ZN6DbgDev16isDiskRuleDisco1EPKc
       2075  81A 000CF7F0 _ZN6DbgDev16isDiskRuleDisco2EPKc
       2076  81B 000D2DA0 _ZN6DbgDev17ReadDebugRegisterEmPmi
       2077  81C 000D5790 _ZN6DbgDev17SetTcpServerParamEhP22DbgDev_TcpServerParamT
       2078  81D 000D3F60 _ZN6DbgDev17WriteMemory_16BitEmPhtPmi
       2079  81E 000D3E30 _ZN6DbgDev17WriteMemory_32BitEmPhtPmi
       2080  81F 000D0290 _ZN6DbgDev17isDiskRuleNucleo1EPKc
       2081  820 000D4EA0 _ZN6DbgDev18ClearAllBreakpointEi
       2082  821 000D56C0 _ZN6DbgDev18GetSWVTraceRecordsEPht
       2083  822 000D4B00 _ZN6DbgDev18IdentifyTargetCoreEi
       2084  823 000D4530 _ZN6DbgDev18WaitForTargetResetEdi
       2085  824 000D2CC0 _ZN6DbgDev18WriteDebugRegisterEmmi
       2086  825 000D1360 _ZN6DbgDev19GetBoardIdentifiersEPhtS0_tS0_t
       2087  826 000D7850 _ZN6DbgDev19GetSTLinkGenerationEv
       2088  827 000D77F0 _ZN6DbgDev20IsDapRegFwCmdSupportEv
       2089  828 000D7770 _ZN6DbgDev20IsSwdClkFwCmdSupportEv
       2090  829 000D0C50 _ZN6DbgDev20SetOpenModeExclusiveEb
       2091  82A 000D0DC0 _ZN6DbgDev21ConvComClockToFreqKHzEh13DbgDev_SwClkT15DbgDev_JtagClkTPm
       2092  82B 000D0F40 _ZN6DbgDev21ConvFreqKHzToComClockEhP13DbgDev_SwClkTP15DbgDev_JtagClkTm
       2093  82C 000D0AC0 _ZN6DbgDev21EnumerateDevInterfaceEPKcPii
       2094  82D 000D77B0 _ZN6DbgDev21IsJtagClkFwCmdSupportEv
       2095  82E 000D54F0 _ZN6DbgDev21StopSWVTraceReceptionEv
       2096  82F 000D3650 _ZN6DbgDev22GetLastReadWriteStatusEPm
       2097  830 000D55D0 _ZN6DbgDev22GetSWVTraceNewRecordNbEPt
       2098  831 000D0C60 _ZN6DbgDev22GetSerialNumFromSystemEi
       2099  832 000D76E0 _ZN6DbgDev22IsTcpAndApFwCmdSupportEv
       2100  833 000D5400 _ZN6DbgDev22StartSWVTraceReceptionEmt
       2101  834 000D7990 _ZN6DbgDev23IsWriteDftRegCmdSupportEv
       2102  835 000D59E0 _ZN6DbgDev24GetMassStorageVolumeNameEPht
       2103  836 000D58B0 _ZN6DbgDev24GetNumOfDeviceClientsTcpEPmm
       2104  837 000D49F0 _ZN6DbgDev24UpdateFlashPatchOnTargetEii
       2105  838 000D4DA0 _ZN6DbgDev25UpdateBreakpointsOnTargetEi
       2106  839 000D10E0 _ZN6DbgDev26IsDriveTargetPwrCmdSupportEv
       2107  83A 000D11D0 _ZN6DbgDev27SendRequestAndAnalyzeStatusEP14TDeviceRequestPKt
       2108  83B 000D0220 _ZN6DbgDev28ComputeBoardRpnFromOtherDataEPKcS1_
       2109  83C 000D7710 _ZN6DbgDev28IsLedAndDiskNameFwCmdSupportEv
       2110  83D 000D7660 _ZN6DbgDev29IsFpuAndBoardTypeFwCmdSupportEv
       2111  83E 000D7690 _ZN6DbgDev29IsJtagConnUnderResetFwSupportEv
       2112  83F 000D76C0 _ZN6DbgDev30IsGetSetSwitchFreqFwCmdSupportEv
       2113  840 000D7820 _ZN6DbgDev30IsMcoSelAndRW16bitFwCmdSupportEv
       2114  841 000D05F0 _ZN6DbgDev31EnumerateDevInterfaceIfRequiredEPKcPiii
       2115  842 000D7740 _ZN6DbgDev31IsVoltageNrstAndSwvFwCmdSupportEv
       2116  843 000CF6C0 _ZN6DbgDev33IsGetBoardIdentifiersFwCmdSupportEv
       2117  844 000D3B50 _ZN6DbgDev4ReadEmPhmPmib
       2118  845 000D50E0 _ZN6DbgDev5ResetEiiii
       2119  846 000D4710 _ZN6DbgDev5WriteEmPhmPmi
       2120  847 000CF6B0 _ZN6DbgDev5sleepEd
       2121  848 000D5DE0 _ZN6DbgDev6InitAPEi14DbgDev_ApTypeT
       2122  849 000D2B10 _ZN6DbgDev6OpenDPEi
       2123  84A 000D1FE0 _ZN6DbgDev7CloseDPEv
       2124  84B 000D2D80 _ZN6DbgDev7RunCoreEii
       2125  84C 000D6790 _ZN6DbgDev8DFU_ExitEi
       2126  84D 000D05E0 _ZN6DbgDev8LogTraceEPKwz
       2127  84E 000D45E0 _ZN6DbgDev8StepCoreEii
       2128  84F 000D7220 _ZN6DbgDev8resetWDGEi
       2129  850 000D4360 _ZN6DbgDev9GetStatusEP14Device_StatusTi
       2130  851 000D1EB0 _ZN6DbgDev9JTAG_ExitEv
       2131  852 000D2C40 _ZN6DbgDev9SWIM_ExitEv
       2132  853 000D0310 _ZN6DbgDevC1E20TEnumStlinkInterface
       2133  854 000D0310 _ZN6DbgDevC2E20TEnumStlinkInterface
       2134  855 000D6150 _ZN6DbgDevD0Ev
       2135  856 000D60C0 _ZN6DbgDevD1Ev
       2136  857 000D60C0 _ZN6DbgDevD2Ev
       2137  858 002D4550 _ZN6DeviceD1Ev
       2138  859 0027D4E0 _ZN6Helper11qt_metacallEN11QMetaObject4CallEiPPv
       2139  85A 0027D480 _ZN6Helper11qt_metacastEPKc
       2140  85B 00424AE0 _ZN6Helper16staticMetaObjectE
       2141  85C 0027D410 _ZN6Helper18qt_static_metacallEP7QObjectN11QMetaObject4CallEiPPv
       2142  85D 00159A60 _ZN6Helper7displayERK7QStringi
       2143  85E 00159580 _ZN6HelperC1ER9QJSEngine
       2144  85F 00159580 _ZN6HelperC2ER9QJSEngine
       2145  860 002D47C0 _ZN6HelperD0Ev
       2146  861 002D47F0 _ZN6HelperD1Ev
       2147  862 00052260 _ZN6MemoryC1ENSt7__cxx1112basic_stringIcSt11char_traitsIcESaIcEEES5_S5_S5_S5_S5_S5_S5_
       2148  863 002D4810 _ZN6MemoryC1ERKS_
       2149  864 00052260 _ZN6MemoryC2ENSt7__cxx1112basic_stringIcSt11char_traitsIcESaIcEEES5_S5_S5_S5_S5_S5_S5_
       2150  865 002D49E0 _ZN6MemoryD1Ev
       2151  866 002D4AF0 _ZN6QDebuglsEPKc
       2152  867 0049CBC4 _ZN6Resume10DnBlockNumE
       2153  868 0049CBC0 _ZN6Resume12InitBlockNumE
       2154  869 0049E0A8 _ZN6Target10numberFileE
       2155  86A 000A34C0 _ZN6Target11ClearTargetEv
       2156  86B 000A3B60 _ZN6Target11checkDeviceEt
       2157  86C 0049E0B0 _ZN6Target11loadersPathE
       2158  86D 000A5B40 _ZN6Target12checkBooleanB5cxx11ESt6vectorI11ReadBooleanSaIS1_EE
       2159  86E 000A5FB0 _ZN6Target13getDeviceInfoEv
       2160  86F 000A3BF0 _ZN6Target13isHighCycleH5Ej
       2161  870 000A4F60 _ZN6Target14getDevicesListEv
       2162  871 000A51C0 _ZN6Target14getToolVersionB5cxx11Ev
       2163  872 003A9120 _ZN6Target14isGenuineSTM32E
       2164  873 000A43B0 _ZN6Target16CheckAddressTypeEj
       2165  874 000A3C20 _ZN6Target16changeSRAMForBeeERj
       2166  875 000A57B0 _ZN6Target19CheckConfigurationsE22InterfaceConfiguration
       2167  876 0049CCF0 _ZN6Target7loadersE
       2168  877 0049CD20 _ZN6Target8fileNameE
       2169  878 0049CCE0 _ZN6Target9nbLoadersE
       2170  879 000A7310 _ZN6TargetC1EP15TargetInterface
       2171  87A 000A3390 _ZN6TargetC1Ev
       2172  87B 000A7310 _ZN6TargetC2EP15TargetInterface
       2173  87C 000A3390 _ZN6TargetC2Ev
       2174  87D 000A34A0 _ZN6TargetD1Ev
       2175  87E 000A34A0 _ZN6TargetD2Ev
       2176  87F 002D4BB0 _ZN7CSectorC1ERKS_
       2177  880 002D4C90 _ZN7FileELFD1Ev
       2178  881 002D4E60 _ZN7QString5clearEv
       2179  882 002D4EA0 _ZN7QString6appendEPKc
       2180  883 002D4EE0 _ZN7QString8fromUtf8EPKcx
       2181  884 002D4F40 _ZN7QStringC1EPKc
       2182  885 002D4F80 _ZN7QStringaSEPKc
       2183  886 002D5030 _ZN7QStringpLEPKc
       2184  887 00071010 _ZN7Stm32L510FlashEraseEj
       2185  888 0006DEB0 _ZN7Stm32L510getKeyTypeEj
       2186  889 0006E4D0 _ZN7Stm32L511MassEraseH5Ev
       2187  88A 00072D60 _ZN7Stm32L511ProgdebugH5EjPcjj
       2188  88B 000752C0 _ZN7Stm32L511SectorEraseEjjb
       2189  88C 000742A0 _ZN7Stm32L511getInstanceEP14DebugInterface
       2190  88D 0006F850 _ZN7Stm32L511progLowFreqEjPcjjb
       2191  88E 00071F70 _ZN7Stm32L512FlashEraseH5Ejb
       2192  88F 00074310 _ZN7Stm32L512detConfigSAUER5QListISt4pairIiiEE
       2193  890 0006EDF0 _ZN7Stm32L512progHighFreqEjPcjjb
       2194  891 0006F210 _ZN7Stm32L513progLowFreqH5EjPcjjb
       2195  892 0006E9B0 _ZN7Stm32L514progHighFreqH5EjPcjjb
       2196  893 00073820 _ZN7Stm32L515CheckMustangRSSEv
       2197  894 00073310 _ZN7Stm32L515ProgdebugLegacyEjPcjj
       2198  895 00076750 _ZN7Stm32L515selectProgDebugEjPcj
       2199  896 0006DF00 _ZN7Stm32L515setVoltageRangeEv
       2200  897 00075380 _ZN7Stm32L516MassEraseCOBRA4MEv
       2201  898 00072D20 _ZN7Stm32L516getDbankValue_U5Ev
       2202  899 00070F80 _ZN7Stm32L517isLowFlashSize_U5Ej
       2203  89A 000701D0 _ZN7Stm32L54InitEb
       2204  89B 0006E070 _ZN7Stm32L56InitH5Ebb
       2205  89C 00070070 _ZN7Stm32L57READ_PCEv
       2206  89D 0049CBF0 _ZN7Stm32L57STM32L5E
       2207  89E 00071E70 _ZN7Stm32L57isH5_1MEv
       2208  89F 00070650 _ZN7Stm32L57readmemEjiPh
       2209  8A0 0006FE90 _ZN7Stm32L58setupSAUER5QListISt4pairIiiEE
       2210  8A1 00075E50 _ZN7Stm32L59MassEraseEv
       2211  8A2 00073790 _ZN7Stm32L59ProgdebugEjPcjj
       2212  8A3 00074E00 _ZN7Stm32L59configSAUEv
       2213  8A4 00071EF0 _ZN7Stm32L59isH5_256KEv
       2214  8A5 000709D0 _ZN7Stm32L59progDWordEjPcjjb
       2215  8A6 00073AF0 _ZN7Stm32L5C1EP14DebugInterface
       2216  8A7 00073AF0 _ZN7Stm32L5C2EP14DebugInterface
       2217  8A8 0006DEE0 _ZN7Stm32L5D1Ev
       2218  8A9 0006DEE0 _ZN7Stm32L5D2Ev
       2219  8AA 002D5070 _ZN7StorageC1ERKS_
       2220  8AB 000A9B30 _ZN7Utility10IsL0DeviceEj
       2221  8AC 000A9B00 _ZN7Utility10IsL1DeviceEj
       2222  8AD 000A9B70 _ZN7Utility10IsWBDeviceEj
       2223  8AE 000A9E10 _ZN7Utility11getCheckSumEPciPi
       2224  8AF 000A9A90 _ZN7Utility11isCortexM33Ej
       2225  8B0 000A9C70 _ZN7Utility11isFlashLessEj
       2226  8B1 000AE300 _ZN7Utility11readFusHashER7QStringRi
       2227  8B2 000A9BB0 _ZN7Utility11timeElapsedE13QElapsedTimerP10DisplayMng
       2228  8B3 000AB9F0 _ZN7Utility12getDeviceMapEv
       2229  8B4 000A9F40 _ZN7Utility12isBootloaderE7QString
       2230  8B5 000A99F0 _ZN7Utility13accurateSleepEm
       2231  8B6 000A9DD0 _ZN7Utility13resume_stdoutEi
       2232  8B7 000AA830 _ZN7Utility14DisplayDataHexEPhtP10DisplayMng
       2233  8B8 000AB2E0 _ZN7Utility14getCLI8bitDataE7QString
       2234  8B9 000A9B80 _ZN7Utility14getSfsaAddressEj
       2235  8BA 000A9D70 _ZN7Utility14supress_stdoutEv
       2236  8BB 000AB540 _ZN7Utility15getCLI16bitDataE7QString
       2237  8BC 000A9AC0 _ZN7Utility15isBlueNRGSpiritEj
       2238  8BD 000AA400 _ZN7Utility15isUartInterfaceE7QString
       2239  8BE 000AA6A0 _ZN7Utility16getUint32t_valueE7QString
       2240  8BF 000AB790 _ZN7Utility19getCLIDataToWrite32E7QString
       2241  8C0 000AAE10 _ZN7Utility19getCLIDataToWrite64E7QString
       2242  8C1 000A9AF0 _ZN7Utility23setFlashlessDeviceAsMCUEv
       2243  8C2 000AA610 _ZN7Utility5_exitE7QStringi
       2244  8C3 000A9A40 _ZN7Utility5isMPUEj
       2245  8C4 000A99E0 _ZN7Utility5sleepEd
       2246  8C5 000A9E40 _ZN7Utility7isDebugE7QString
       2247  8C6 000A9C80 _ZN7Utility9humanSizeEy
       2248  8C7 000A99D0 _ZN7UtilityC1Ev
       2249  8C8 000A99D0 _ZN7UtilityC2Ev
       2250  8C9 0027D380 _ZN8CSLockerC1ER21_RTL_CRITICAL_SECTION
       2251  8CA 0027D380 _ZN8CSLockerC2ER21_RTL_CRITICAL_SECTION
       2252  8CB 0027D390 _ZN8CSLockerD1Ev
       2253  8CC 0027D390 _ZN8CSLockerD2Ev
       2254  8CD 00023BE0 _ZN8DbgJlink10ForceDebugEii
       2255  8CE 00023BB0 _ZN8DbgJlink12ReadRegisterEhPmi
       2256  8CF 00023B80 _ZN8DbgJlink15ReadDapRegisterEitPm
       2257  8D0 00023BF0 _ZN8DbgJlink16GetTargetVoltageEPf
       2258  8D1 00023B90 _ZN8DbgJlink4ReadEmPhmPmib
       2259  8D2 00023C60 _ZN8DbgJlink5ResetEiiii
       2260  8D3 00023C70 _ZN8DbgJlink7RunCoreEii
       2261  8D4 00023C90 _ZN8DbgJlinkC1Ev
       2262  8D5 00023C90 _ZN8DbgJlinkC2Ev
       2263  8D6 00023DF0 _ZN8DbgJlinkD1Ev
       2264  8D7 00023DF0 _ZN8DbgJlinkD2Ev
       2265  8D8 002D52D0 _ZN9CCategoryC1ERKS_
       2266  8D9 002729F0 _ZN9CryptoOTP10calculHashEPhS0_j
       2267  8DA 00273490 _ZN9CryptoOTP11createFilesE7QStringPhS0_
       2268  8DB 00272A90 _ZN9CryptoOTP14otpProgrammingE7QString
       2269  8DC 00273A30 _ZN9CryptoOTP20provisioningPasswordE7QStringS0_PS_
       2270  8DD 002729D0 _ZN9CryptoOTPC1Ev
       2271  8DE 002729D0 _ZN9CryptoOTPC2Ev
       2272  8DF 002D54D0 _ZN9DFUDeviceD1Ev
       2273  8E0 000845C0 _ZN9DomParser10GetCfgListE8QDomAttr
       2274  8E1 0008AB10 _ZN9DomParser10GetPeriphsE8QDomNode
       2275  8E2 00082B50 _ZN9DomParser11GetParmListE8QDomNodeRNSt7__cxx1112basic_stringIcSt11char_traitsIcESaIcEEERjS8_Pj
       2276  8E3 000871D0 _ZN9DomParser12GetConfigBitE8QDomNodeRSt6vectorI3BitSaIS2_EE
       2277  8E4 000816E0 _ZN9DomParser12GetConfigEquE8QDomNode
       2278  8E5 00083060 _ZN9DomParser12GetConfigValE8QDomNode
       2279  8E6 00083880 _ZN9DomParser12GetInterfaceE8QDomNode
       2280  8E7 00089C20 _ZN9DomParser13GetConfigBankE8QDomNode
       2281  8E8 00080CF0 _ZN9DomParser13GetDeviceNodeEt
       2282  8E9 0008F320 _ZN9DomParser13init_QDom_docE7QStringPP12QDomDocument
       2283  8EA 00080A70 _ZN9DomParser14CheckDataStateEv
       2284  8EB 00085130 _ZN9DomParser14GetStorageBankE8QDomNode
       2285  8EC 000819C0 _ZN9DomParser15CheckPeriphTypeE8QDomNode
       2286  8ED 0008A430 _ZN9DomParser15GetConfigPeriphE8QDomNode
       2287  8EE 00089070 _ZN9DomParser15GetConfigSectorE8QDomNode
       2288  8EF 00084260 _ZN9DomParser16GetConditionListENSt7__cxx1112basic_stringIcSt11char_traitsIcESaIcEEE
       2289  8F0 000833D0 _ZN9DomParser16GetConfigurationE8QDomNode
       2290  8F1 000853E0 _ZN9DomParser16GetStorageConfigE8QDomNode
       2291  8F2 00085BA0 _ZN9DomParser16GetStoragePeriphE8QDomNode
       2292  8F3 000848E0 _ZN9DomParser16GetStorageSectorE8QDomNodeRSt6vectorI13StorageSectorSaIS2_EE
       2293  8F4 000896A0 _ZN9DomParser17GetConfigCategoryE8QDomNode
       2294  8F5 0008B750 _ZN9DomParser17GetConfigurationsE8QDomNode
       2295  8F6 00082730 _ZN9DomParser18GetConfigConditionE8QDomNode
       2296  8F7 00081B90 _ZN9DomParser18GetGenInformationsE8QDomNode
       2297  8F8 00081320 _ZN9DomParser19GetConfigRConditionE8QDomNode
       2298  8F9 00081040 _ZN9DomParser19GetConfigWConditionE8QDomNode
       2299  8FA 00082280 _ZN9DomParser20getBooleansConditionE8QDomNode
       2300  8FB 00088ED0 _ZN9DomParser21GetConfigAssignedBitsE8QDomNode
       2301  8FC 0008A150 _ZN9DomParser22GetConfigconfigurationE8QDomNode
       2302  8FD 00080BF0 _ZN9DomParser7get_txtB5cxx11E8QDomNode
       2303  8FE 00080A80 _ZN9DomParser8check_DBEv
       2304  8FF 0008D900 _ZN9DomParser9GetDeviceEt
       2305  900 0008F4A0 _ZN9DomParserC1ENSt7__cxx1112basic_stringIcSt11char_traitsIcESaIcEEE
       2306  901 0008F4A0 _ZN9DomParserC2ENSt7__cxx1112basic_stringIcSt11char_traitsIcESaIcEEE
       2307  902 00080A20 _ZN9DomParserD1Ev
       2308  903 00080A20 _ZN9DomParserD2Ev
       2309  904 002D5690 _ZN9Field_SVDD1Ev
       2310  905 00052460 _ZN9MemoryMap14getDeviceInfosEv
       2311  906 000536C0 _ZN9MemoryMap15memoryMapChecksEv
       2312  907 00052470 _ZN9MemoryMap16displayMemoryMapEv
       2313  908 00052980 _ZN9MemoryMap16memoryMapJsonGenEv
       2314  909 00053900 _ZN9MemoryMap21fillStoragePriphsDataEv
       2315  90A 00055C30 _ZN9MemoryMapC1Et
       2316  90B 00055C30 _ZN9MemoryMapC2Et
       2317  90C 00055F80 _ZN9MemoryMapD1Ev
       2318  90D 00055F80 _ZN9MemoryMapD2Ev
       2319  90E 002D5700 _ZN9QtPrivate12QPodArrayOpsISt4pairIiiEE7emplaceIJRKS2_EEEvxDpOT_
       2320  90F 002D5A00 _ZN9QtPrivate12QPodArrayOpsIjE7emplaceIJRjEEEvxDpOT_
       2321  910 00434950 _ZN9QtPrivate16QMetaTypeForTypeI6HelperE4nameE
       2322  911 00434960 _ZN9QtPrivate16QMetaTypeForTypeI8QJSValueE4nameE
       2323  912 002D5CC0 _ZN9QtPrivate16QMovableArrayOpsI10QByteArrayE7emplaceIJRKS1_EEEvxDpOT_
       2324  913 002D5EC0 _ZN9QtPrivate16QMovableArrayOpsI10QByteArrayE7emplaceIJS1_EEEvxDpOT_
       2325  914 002D6150 _ZN9QtPrivate16QMovableArrayOpsI5QListIjEE7emplaceIJRKS2_EEEvxDpOT_
       2326  915 002D6530 _ZN9QtPrivate16QMovableArrayOpsI7QStringE7emplaceIJRKS1_EEEvxDpOT_
       2327  916 002D6730 _ZN9QtPrivate16QMovableArrayOpsI7QStringE7emplaceIJS1_EEEvxDpOT_
       2328  917 002D6B80 _ZN9QtPrivate16QMovableArrayOpsI8QVariantE7emplaceIJS1_EEEvxDpOT_
       2329  918 002D70F0 _ZN9QtPrivate16QMovableArrayOpsISt4pairI7QStringS2_EE7emplaceIJS3_EEEvxDpOT_
       2330  919 002D7620 _ZN9QtPrivate17MetaObjectForTypeI6HelpervE18metaObjectFunctionEPKNS_18QMetaTypeInterfaceE
       2331  91A 002D7630 _ZN9QtPrivate24QEqualityOperatorForTypeI7QStringLb1EE6equalsEPKNS_18QMetaTypeInterfaceEPKvS7_
       2332  91B 002D7680 _ZN9QtPrivate24QEqualityOperatorForTypeIiLb1EE6equalsEPKNS_18QMetaTypeInterfaceEPKvS6_
       2333  91C 002D7690 _ZN9QtPrivate24QLessThanOperatorForTypeI7QStringLb1EE8lessThanEPKNS_18QMetaTypeInterfaceEPKvS7_
       2334  91D 002D76E0 _ZN9QtPrivate24QLessThanOperatorForTypeIiLb1EE8lessThanEPKNS_18QMetaTypeInterfaceEPKvS6_
       2335  91E 003ABC80 _ZN9QtPrivate25QMetaTypeInterfaceWrapperI6HelperE8metaTypeE
       2336  91F 00434980 _ZN9QtPrivate25QMetaTypeInterfaceWrapperI7QStringE8metaTypeE
       2337  920 003ABD00 _ZN9QtPrivate25QMetaTypeInterfaceWrapperI8QJSValueE8metaTypeE
       2338  921 00434A00 _ZN9QtPrivate25QMetaTypeInterfaceWrapperIiE8metaTypeE
       2339  922 002D76F0 _ZN9QtPrivate26QDataStreamOperatorForTypeI7QStringLb1EE12dataStreamInEPKNS_18QMetaTypeInterfaceER11QDataStreamPv
       2340  923 002D7700 _ZN9QtPrivate26QDataStreamOperatorForTypeI7QStringLb1EE13dataStreamOutEPKNS_18QMetaTypeInterfaceER11QDataStreamPKv
       2341  924 002D7710 _ZN9QtPrivate26QDataStreamOperatorForTypeI8QJSValueLb1EE12dataStreamInEPKNS_18QMetaTypeInterfaceER11QDataStreamPv
       2342  925 002D7720 _ZN9QtPrivate26QDataStreamOperatorForTypeI8QJSValueLb1EE13dataStreamOutEPKNS_18QMetaTypeInterfaceER11QDataStreamPKv
       2343  926 002D7730 _ZN9QtPrivate26QDataStreamOperatorForTypeIiLb1EE12dataStreamInEPKNS_18QMetaTypeInterfaceER11QDataStreamPv
       2344  927 002D7740 _ZN9QtPrivate26QDataStreamOperatorForTypeIiLb1EE13dataStreamOutEPKNS_18QMetaTypeInterfaceER11QDataStreamPKv
       2345  928 002D7750 _ZN9QtPrivate27QDebugStreamOperatorForTypeI7QStringLb1EE11debugStreamEPKNS_18QMetaTypeInterfaceER6QDebugPKv
       2346  929 002D77A0 _ZN9QtPrivate27QDebugStreamOperatorForTypeIiLb1EE11debugStreamEPKNS_18QMetaTypeInterfaceER6QDebugPKv
       2347  92A 002D77E0 _ZN9QtPrivate30QExplicitlySharedDataPointerV2I8QMapDataISt3mapI7QString8QVariantSt4lessIS3_ESaISt4pairIKS3_S4_EEEEED1Ev
       2348  92B 002D7880 _ZN9QtPrivate30QExplicitlySharedDataPointerV2I8QMapDataISt3mapI7QStringS3_St4lessIS3_ESaISt4pairIKS3_S3_EEEEED1Ev
       2349  92C 002D7930 _ZN9QtPrivate30QExplicitlySharedDataPointerV2I8QMapDataISt3mapIhPKcSt4lessIhESaISt4pairIKhS4_EEEEED1Ev
       2350  92D 002D79A0 _ZN9QtPrivate30QExplicitlySharedDataPointerV2I8QMapDataISt3mapIi7QStringSt4lessIiESaISt4pairIKiS3_EEEEED1Ev
       2351  92E 002D7A30 _ZN9QtPrivate30QExplicitlySharedDataPointerV2I8QMapDataISt3mapIiiSt4lessIiESaISt4pairIKiiEEEEED1Ev
       2352  92F 002D7AA0 _ZN9QtPrivate30QExplicitlySharedDataPointerV2I8QMapDataISt3mapItPKcSt4lessItESaISt4pairIKtS4_EEEEED1Ev
       2353  930 002D7B10 _ZN9QtPrivate7indexOfI7QStringA6_cEExRK5QListIT_ERKT0_x
       2354  931 002D7BE0 _ZN9SectorInfD1Ev
       2355  932 0012F520 _ZN9SvdParser11getCoreNameEv
       2356  933 001305B0 _ZN9SvdParser12getFieldInfoE8QDomNodeRKNSt7__cxx1112basic_stringIcSt11char_traitsIcESaIcEEE
       2357  934 00131ED0 _ZN9SvdParser12getRegistersE8QDomNode
       2358  935 001344E0 _ZN9SvdParser13getDeviceInfoEv
       2359  936 001349F0 _ZN9SvdParser13init_QDom_docE7QStringPP12QDomDocument
       2360  937 001333F0 _ZN9SvdParser14getPeripheralsE8QDomNode
       2361  938 00131240 _ZN9SvdParser15getRegisterInfoE8QDomNode
       2362  939 0012EA40 _ZN9SvdParser16CheckMcuSvdStateEv
       2363  93A 0012F140 _ZN9SvdParser16fillFieldsValuesEP12Register_SVD
       2364  93B 001367E0 _ZN9SvdParser16saveDeviceToFileE7QString
       2365  93C 001352E0 _ZN9SvdParser16savePeriphToFileE7QStringi
       2366  93D 0012EA30 _ZN9SvdParser17CheckCoreSvdStateEv
       2367  93E 00132830 _ZN9SvdParser17getPeripheralInfoE8QDomNode14Peripheral_SVDb
       2368  93F 0012F340 _ZN9SvdParser18check_SVD_File_MCUEv
       2369  940 0012F180 _ZN9SvdParser19check_SVD_File_CoreEv
       2370  941 00130270 _ZN9SvdParser19getAddressBlockInfoE8QDomNode
       2371  942 0012F150 _ZN9SvdParser19getBitsFromRegisterEjjj
       2372  943 0012EEC0 _ZN9SvdParser20readPeripheralValuesEP14Peripheral_SVD
       2373  944 0012F120 _ZN9SvdParser22readAllRegistersValuesEv
       2374  945 0012FD70 _ZN9SvdParser26findPeriphContainingStringENSt7__cxx1112basic_stringIcSt11char_traitsIcESaIcEEEPjbb
       2375  946 00130170 _ZN9SvdParser7get_txtB5cxx11E8QDomNode
       2376  947 00130EC0 _ZN9SvdParser9getFieldsE8QDomNodeRKNSt7__cxx1112basic_stringIcSt11char_traitsIcESaIcEEE
       2377  948 00134B80 _ZN9SvdParserC1E7QStringP15TargetInterface
       2378  949 00134B80 _ZN9SvdParserC2E7QStringP15TargetInterface
       2379  94A 0012E9C0 _ZN9SvdParserD1Ev
       2380  94B 0012E9C0 _ZN9SvdParserD2Ev
       2381  94C 002D9810 _ZN9__gnu_cxx6__stoaIlicJiEEET0_PFT_PKT1_PPS3_DpT2_EPKcS5_PyS9_
       2382  94D 002D98C0 _ZN9__gnu_cxx6__stoaImmcJiEEET0_PFT_PKT1_PPS3_DpT2_EPKcS5_PyS9_
       2383  94E 002D9970 _ZN9__gnu_cxx6__stoaIyycJiEEET0_PFT_PKT1_PPS3_DpT2_EPKcS5_PyS9_
       2384  94F 0013AF50 _ZNK15SecurityExtRSSe12getInputAddrEv
       2385  950 0013AF70 _ZNK15SecurityExtRSSe13getResultAddrEv
       2386  951 0013AF30 _ZNK15SecurityExtRSSe14getPayloadAddrEv
       2387  952 0014EDF0 _ZNK15SecurityExtSSFI12getInputAddrEv
       2388  953 0014EE10 _ZNK15SecurityExtSSFI13getResultAddrEv
       2389  954 0014EDD0 _ZNK15SecurityExtSSFI14getPayloadAddrEv
       2390  955 00266CF0 _ZNK4Expr11disassembleB5cxx11Ev
       2391  956 00266610 _ZNK4Expr4evalEv
       2392  957 001243F0 _ZNK4JDEC17isGenuineSTDeviceEv
       2393  958 002DA930 _ZNK5ELFIO12section_implINS_10Elf32_ShdrEE11get_addressEv
       2394  959 002DA950 _ZNK5ELFIO12section_implINS_10Elf32_ShdrEE14get_addr_alignEv
       2395  95A 002DA970 _ZNK5ELFIO12section_implINS_10Elf32_ShdrEE14get_entry_sizeEv
       2396  95B 002DA990 _ZNK5ELFIO12section_implINS_10Elf32_ShdrEE22get_name_string_offsetEv
       2397  95C 002DA9B0 _ZNK5ELFIO12section_implINS_10Elf32_ShdrEE22is_address_initializedEv
       2398  95D 002DA9C0 _ZNK5ELFIO12section_implINS_10Elf32_ShdrEE8get_dataEv
       2399  95E 002DA9D0 _ZNK5ELFIO12section_implINS_10Elf32_ShdrEE8get_infoEv
       2400  95F 002DA9F0 _ZNK5ELFIO12section_implINS_10Elf32_ShdrEE8get_linkEv
       2401  960 002DAA10 _ZNK5ELFIO12section_implINS_10Elf32_ShdrEE8get_nameB5cxx11Ev
       2402  961 002DAAD0 _ZNK5ELFIO12section_implINS_10Elf32_ShdrEE8get_sizeEv
       2403  962 002DAAF0 _ZNK5ELFIO12section_implINS_10Elf32_ShdrEE8get_typeEv
       2404  963 002DAB10 _ZNK5ELFIO12section_implINS_10Elf32_ShdrEE9get_flagsEv
       2405  964 002DAB30 _ZNK5ELFIO12section_implINS_10Elf32_ShdrEE9get_indexEv
       2406  965 002DAB40 _ZNK5ELFIO12section_implINS_10Elf64_ShdrEE11get_addressEv
       2407  966 002DAB60 _ZNK5ELFIO12section_implINS_10Elf64_ShdrEE14get_addr_alignEv
       2408  967 002DAB80 _ZNK5ELFIO12section_implINS_10Elf64_ShdrEE14get_entry_sizeEv
       2409  968 002DABA0 _ZNK5ELFIO12section_implINS_10Elf64_ShdrEE22get_name_string_offsetEv
       2410  969 002DABC0 _ZNK5ELFIO12section_implINS_10Elf64_ShdrEE22is_address_initializedEv
       2411  96A 002DABD0 _ZNK5ELFIO12section_implINS_10Elf64_ShdrEE8get_dataEv
       2412  96B 002DABE0 _ZNK5ELFIO12section_implINS_10Elf64_ShdrEE8get_infoEv
       2413  96C 002DAC00 _ZNK5ELFIO12section_implINS_10Elf64_ShdrEE8get_linkEv
       2414  96D 002DAC20 _ZNK5ELFIO12section_implINS_10Elf64_ShdrEE8get_nameB5cxx11Ev
       2415  96E 002DACE0 _ZNK5ELFIO12section_implINS_10Elf64_ShdrEE8get_sizeEv
       2416  96F 002DAD00 _ZNK5ELFIO12section_implINS_10Elf64_ShdrEE8get_typeEv
       2417  970 002DAD20 _ZNK5ELFIO12section_implINS_10Elf64_ShdrEE9get_flagsEv
       2418  971 002DAD40 _ZNK5ELFIO12section_implINS_10Elf64_ShdrEE9get_indexEv
       2419  972 002DAD50 _ZNK5ELFIO12segment_implINS_10Elf32_PhdrEE10get_offsetEv
       2420  973 002DAD70 _ZNK5ELFIO12segment_implINS_10Elf32_PhdrEE13get_file_sizeEv
       2421  974 002DAD90 _ZNK5ELFIO12segment_implINS_10Elf32_PhdrEE15get_memory_sizeEv
       2422  975 002DADB0 _ZNK5ELFIO12segment_implINS_10Elf32_PhdrEE16get_sections_numEv
       2423  976 002DADC0 _ZNK5ELFIO12segment_implINS_10Elf32_PhdrEE19get_virtual_addressEv
       2424  977 002DADE0 _ZNK5ELFIO12segment_implINS_10Elf32_PhdrEE20get_physical_addressEv
       2425  978 002DAE00 _ZNK5ELFIO12segment_implINS_10Elf32_PhdrEE20get_section_index_atEt
       2426  979 002DAE30 _ZNK5ELFIO12segment_implINS_10Elf32_PhdrEE4loadERSt14basic_ifstreamIcSt11char_traitsIcEESt4fposIiE
       2427  97A 002DAF80 _ZNK5ELFIO12segment_implINS_10Elf32_PhdrEE8get_dataEv
       2428  97B 002DAF90 _ZNK5ELFIO12segment_implINS_10Elf32_PhdrEE8get_typeEv
       2429  97C 002DAFB0 _ZNK5ELFIO12segment_implINS_10Elf32_PhdrEE9get_alignEv
       2430  97D 002DAFD0 _ZNK5ELFIO12segment_implINS_10Elf32_PhdrEE9get_flagsEv
       2431  97E 002DAFF0 _ZNK5ELFIO12segment_implINS_10Elf32_PhdrEE9get_indexEv
       2432  97F 002DB000 _ZNK5ELFIO12segment_implINS_10Elf64_PhdrEE10get_offsetEv
       2433  980 002DB020 _ZNK5ELFIO12segment_implINS_10Elf64_PhdrEE13get_file_sizeEv
       2434  981 002DB040 _ZNK5ELFIO12segment_implINS_10Elf64_PhdrEE15get_memory_sizeEv
       2435  982 002DB060 _ZNK5ELFIO12segment_implINS_10Elf64_PhdrEE16get_sections_numEv
       2436  983 002DB070 _ZNK5ELFIO12segment_implINS_10Elf64_PhdrEE19get_virtual_addressEv
       2437  984 002DB090 _ZNK5ELFIO12segment_implINS_10Elf64_PhdrEE20get_physical_addressEv
       2438  985 002DB0B0 _ZNK5ELFIO12segment_implINS_10Elf64_PhdrEE20get_section_index_atEt
       2439  986 002DB0E0 _ZNK5ELFIO12segment_implINS_10Elf64_PhdrEE4loadERSt14basic_ifstreamIcSt11char_traitsIcEESt4fposIiE
       2440  987 002DB250 _ZNK5ELFIO12segment_implINS_10Elf64_PhdrEE8get_dataEv
       2441  988 002DB260 _ZNK5ELFIO12segment_implINS_10Elf64_PhdrEE8get_typeEv
       2442  989 002DB280 _ZNK5ELFIO12segment_implINS_10Elf64_PhdrEE9get_alignEv
       2443  98A 002DB2A0 _ZNK5ELFIO12segment_implINS_10Elf64_PhdrEE9get_flagsEv
       2444  98B 002DB2C0 _ZNK5ELFIO12segment_implINS_10Elf64_PhdrEE9get_indexEv
       2445  98C 002DB2D0 _ZNK5ELFIO15elf_header_implINS_10Elf32_EhdrEE10get_os_abiEv
       2446  98D 002DB2E0 _ZNK5ELFIO15elf_header_implINS_10Elf32_EhdrEE11get_machineEv
       2447  98E 002DB300 _ZNK5ELFIO15elf_header_implINS_10Elf32_EhdrEE11get_versionEv
       2448  98F 002DB320 _ZNK5ELFIO15elf_header_implINS_10Elf32_EhdrEE12get_encodingEv
       2449  990 002DB330 _ZNK5ELFIO15elf_header_implINS_10Elf32_EhdrEE15get_abi_versionEv
       2450  991 002DB340 _ZNK5ELFIO15elf_header_implINS_10Elf32_EhdrEE15get_elf_versionEv
       2451  992 002DB350 _ZNK5ELFIO15elf_header_implINS_10Elf32_EhdrEE15get_header_sizeEv
       2452  993 002DB370 _ZNK5ELFIO15elf_header_implINS_10Elf32_EhdrEE16get_sections_numEv
       2453  994 002DB390 _ZNK5ELFIO15elf_header_implINS_10Elf32_EhdrEE16get_segments_numEv
       2454  995 002DB3B0 _ZNK5ELFIO15elf_header_implINS_10Elf32_EhdrEE19get_sections_offsetEv
       2455  996 002DB3D0 _ZNK5ELFIO15elf_header_implINS_10Elf32_EhdrEE19get_segments_offsetEv
       2456  997 002DB3F0 _ZNK5ELFIO15elf_header_implINS_10Elf32_EhdrEE22get_section_entry_sizeEv
       2457  998 002DB410 _ZNK5ELFIO15elf_header_implINS_10Elf32_EhdrEE22get_segment_entry_sizeEv
       2458  999 002DB430 _ZNK5ELFIO15elf_header_implINS_10Elf32_EhdrEE26get_section_name_str_indexEv
       2459  99A 002DB450 _ZNK5ELFIO15elf_header_implINS_10Elf32_EhdrEE4saveERSt14basic_ofstreamIcSt11char_traitsIcEE
       2460  99B 002DB4B0 _ZNK5ELFIO15elf_header_implINS_10Elf32_EhdrEE8get_typeEv
       2461  99C 002DB4D0 _ZNK5ELFIO15elf_header_implINS_10Elf32_EhdrEE9get_classEv
       2462  99D 002DB4E0 _ZNK5ELFIO15elf_header_implINS_10Elf32_EhdrEE9get_entryEv
       2463  99E 002DB500 _ZNK5ELFIO15elf_header_implINS_10Elf32_EhdrEE9get_flagsEv
       2464  99F 002DB520 _ZNK5ELFIO15elf_header_implINS_10Elf64_EhdrEE10get_os_abiEv
       2465  9A0 002DB530 _ZNK5ELFIO15elf_header_implINS_10Elf64_EhdrEE11get_machineEv
       2466  9A1 002DB550 _ZNK5ELFIO15elf_header_implINS_10Elf64_EhdrEE11get_versionEv
       2467  9A2 002DB570 _ZNK5ELFIO15elf_header_implINS_10Elf64_EhdrEE12get_encodingEv
       2468  9A3 002DB580 _ZNK5ELFIO15elf_header_implINS_10Elf64_EhdrEE15get_abi_versionEv
       2469  9A4 002DB590 _ZNK5ELFIO15elf_header_implINS_10Elf64_EhdrEE15get_elf_versionEv
       2470  9A5 002DB5A0 _ZNK5ELFIO15elf_header_implINS_10Elf64_EhdrEE15get_header_sizeEv
       2471  9A6 002DB5C0 _ZNK5ELFIO15elf_header_implINS_10Elf64_EhdrEE16get_sections_numEv
       2472  9A7 002DB5E0 _ZNK5ELFIO15elf_header_implINS_10Elf64_EhdrEE16get_segments_numEv
       2473  9A8 002DB600 _ZNK5ELFIO15elf_header_implINS_10Elf64_EhdrEE19get_sections_offsetEv
       2474  9A9 002DB620 _ZNK5ELFIO15elf_header_implINS_10Elf64_EhdrEE19get_segments_offsetEv
       2475  9AA 002DB640 _ZNK5ELFIO15elf_header_implINS_10Elf64_EhdrEE22get_section_entry_sizeEv
       2476  9AB 002DB660 _ZNK5ELFIO15elf_header_implINS_10Elf64_EhdrEE22get_segment_entry_sizeEv
       2477  9AC 002DB680 _ZNK5ELFIO15elf_header_implINS_10Elf64_EhdrEE26get_section_name_str_indexEv
       2478  9AD 002DB6A0 _ZNK5ELFIO15elf_header_implINS_10Elf64_EhdrEE4saveERSt14basic_ofstreamIcSt11char_traitsIcEE
       2479  9AE 002DB700 _ZNK5ELFIO15elf_header_implINS_10Elf64_EhdrEE8get_typeEv
       2480  9AF 002DB720 _ZNK5ELFIO15elf_header_implINS_10Elf64_EhdrEE9get_classEv
       2481  9B0 002DB730 _ZNK5ELFIO15elf_header_implINS_10Elf64_EhdrEE9get_entryEv
       2482  9B1 002DB750 _ZNK5ELFIO15elf_header_implINS_10Elf64_EhdrEE9get_flagsEv
       2483  9B2 002DB770 _ZNK5OBcmdltERKS_
       2484  9B3 002DB860 _ZNK5QListI7QStringE3midExx
       2485  9B4 0027D3B0 _ZNK6Helper10metaObjectEv
       2486  9B5 002DBA60 _ZNK7QString11toStdStringB5cxx11Ev
       2487  9B6 002DBAE0 _ZNK7QString12toStdWStringB5cxx11Ev
       2488  9B7 002DBB60 _ZNK7QString5toIntEPbi
       2489  9B8 002DBBB0 _ZNK7QString6toUIntEPbi
       2490  9B9 002DBBF0 _ZNK7QStringeqEPKc
       2491  9BA 002DBC30 _ZNK7QStringneEPKc
       2492  9BB 000709C0 _ZNK7Stm32L512getPageIndexEjj
       2493  9BC 000700F0 _ZNK7Stm32L513getDeviceTypeEv
       2494  9BD 002DDAF0 _ZNKSt10_HashtableINSt7__cxx1112basic_stringIcSt11char_traitsIcESaIcEEES5_SaIS5_ENSt8__detail9_IdentityESt8equal_toIS5_ESt4hashIS5_ENS7_18_Mod_range_hashingENS7_20_Default_ranged_hashENS7_20_Prime_rehash_policyENS7_17_Hashtable_traitsILb1ELb1ELb1EEEE19_M_find_before_nodeEyRKS5_y
       2495  9BE 002E5F50 _ZNKSt23__codecvt_abstract_baseIwciE2inERiPKcS3_RS3_PwS5_RS5_
       2496  9BF 002E6C90 _ZNKSt5ctypeIcE8do_widenEc
       2497  9C0 002E8CE0 _ZNKSt6vectorIP22AbstractFlashLoaderMngSaIS1_EE14_M_range_checkEy
       2498  9C1 003196D0 _ZNKSt8_Rb_treeI7QStringSt4pairIKS0_8QVariantESt10_Select1stIS4_ESt4lessIS0_ESaIS4_EE4findERS2_
       2499  9C2 003197B0 _ZNKSt8_Rb_treeINSt7__cxx1112basic_stringIcSt11char_traitsIcESaIcEEESt4pairIKS5_St6vectorI9SectorInfSaIS9_EEESt10_Select1stISC_ESt4lessIS5_ESaISC_EE4findERS7_
       2500  9C3 00334BF0 _ZNSt10_HashtableINSt7__cxx1112basic_stringIcSt11char_traitsIcESaIcEEES5_SaIS5_ENSt8__detail9_IdentityESt8equal_toIS5_ESt4hashIS5_ENS7_18_Mod_range_hashingENS7_20_Default_ranged_hashENS7_20_Prime_rehash_policyENS7_17_Hashtable_traitsILb1ELb1ELb1EEEE5clearEv
       2501  9C4 00334C70 _ZNSt10_HashtableINSt7__cxx1112basic_stringIcSt11char_traitsIcESaIcEEES5_SaIS5_ENSt8__detail9_IdentityESt8equal_toIS5_ESt4hashIS5_ENS7_18_Mod_range_hashingENS7_20_Default_ranged_hashENS7_20_Prime_rehash_policyENS7_17_Hashtable_traitsILb1ELb1ELb1EEEE9_M_rehashEyRKy
       2502  9C5 0033D800 _ZNSt10filesystem7__cxx114path10_S_convertIcEEDaPKT_S5_
       2503  9C6 00341AA0 _ZNSt10filesystem7__cxx118__detail24__throw_conversion_errorEv
       2504  9C7 00344C80 _ZNSt10unique_ptrI10InterruptsSt14default_deleteIS0_EED1Ev
       2505  9C8 00344CA0 _ZNSt10unique_ptrINSt10filesystem7__cxx114path5_List5_ImplENS3_13_Impl_deleterEED1Ev
       2506  9C9 00346450 _ZNSt12_Destroy_auxILb0EE9__destroyIP11StorageBankEEvT_S4_
       2507  9CA 003464F0 _ZNSt12_Destroy_auxILb0EE9__destroyIP12ConfigSectorEEvT_S4_
       2508  9CB 003466C0 _ZNSt12_Destroy_auxILb0EE9__destroyIP14ConfigCategoryEEvT_S4_
       2509  9CC 003468F0 _ZNSt12_Destroy_auxILb0EE9__destroyIP16ConfigConfPeriphEEvT_S4_
       2510  9CD 00346970 _ZNSt12_Destroy_auxILb0EE9__destroyIP16bitConfiguartionEEvT_S4_
       2511  9CE 00346A80 _ZNSt12_Destroy_auxILb0EE9__destroyIP17ConfigurationBankEEvT_S4_
       2512  9CF 00346AD0 _ZNSt12_Destroy_auxILb0EE9__destroyIP19ConfiguartionSectorEEvT_S4_
       2513  9D0 00346C60 _ZNSt12_Destroy_auxILb0EE9__destroyIP21ConfigurationCategoryEEvT_S4_
       2514  9D1 00346E40 _ZNSt12_Destroy_auxILb0EE9__destroyIP4BankEEvT_S4_
       2515  9D2 00346E90 _ZNSt12_Destroy_auxILb0EE9__destroyIP5CBankEEvT_S4_
       2516  9D3 00346FA0 _ZNSt12_Destroy_auxILb0EE9__destroyIP7CSectorEEvT_S4_
       2517  9D4 00347000 _ZNSt12_Destroy_auxILb0EE9__destroyIP9CCategoryEEvT_S4_
       2518  9D5 00347D00 _ZNSt12_Vector_baseI10ConfigBankSaIS0_EED2Ev
       2519  9D6 00347D30 _ZNSt12_Vector_baseI10SegmentSFISaIS0_EED2Ev
       2520  9D7 00347D60 _ZNSt12_Vector_baseI11SegmentDataSaIS0_EED2Ev
       2521  9D8 00347D90 _ZNSt12_Vector_baseI11StorageBankSaIS0_EED2Ev
       2522  9D9 00347DC0 _ZNSt12_Vector_baseI12ConfigSectorSaIS0_EED2Ev
       2523  9DA 00347DF0 _ZNSt12_Vector_baseI13ConfigurationSaIS0_EED2Ev
       2524  9DB 00347E20 _ZNSt12_Vector_baseI13StorageSectorSaIS0_EED2Ev
       2525  9DC 00347E50 _ZNSt12_Vector_baseI14ConfigCategorySaIS0_EED2Ev
       2526  9DD 00347E80 _ZNSt12_Vector_baseI15ConfigConditionSaIS0_EED2Ev
       2527  9DE 00347EB0 _ZNSt12_Vector_baseI16bitConfiguartionSaIS0_EED2Ev
       2528  9DF 00347EE0 _ZNSt12_Vector_baseI19ConfiguartionSectorSaIS0_EED2Ev
       2529  9E0 00347F10 _ZNSt12_Vector_baseI21ConfigurationCategorySaIS0_EED2Ev
       2530  9E1 00347F40 _ZNSt12_Vector_baseI3BitSaIS0_EED2Ev
       2531  9E2 00347F70 _ZNSt12_Vector_baseI6SectorSaIS0_EED2Ev
       2532  9E3 00347FA0 _ZNSt12_Vector_baseI6UpDataSaIS0_EED2Ev
       2533  9E4 00347FD0 _ZNSt12_Vector_baseI7CSectorSaIS0_EED2Ev
       2534  9E5 00348000 _ZNSt12_Vector_baseI7WordCmdSaIS0_EED2Ev
       2535  9E6 00348030 _ZNSt12_Vector_baseI8bitValueSaIS0_EED2Ev
       2536  9E7 00348060 _ZNSt12_Vector_baseI9CCategorySaIS0_EED2Ev
       2537  9E8 00348090 _ZNSt12_Vector_baseI9Field_SVDSaIS0_EED2Ev
       2538  9E9 003480C0 _ZNSt12_Vector_baseINSt7__cxx1112basic_stringIcSt11char_traitsIcESaIcEEESaIS5_EED2Ev
       2539  9EA 003480F0 _ZNSt12_Vector_baseIP22AbstractFlashLoaderMngSaIS1_EED2Ev
       2540  9EB 00348120 _ZNSt12_Vector_baseIP3bitSaIS1_EED2Ev
       2541  9EC 00348150 _ZNSt12_Vector_baseIP9DFUDeviceSaIS1_EED2Ev
       2542  9ED 00348180 _ZNSt12_Vector_baseIPN5ELFIO7sectionESaIS2_EED2Ev
       2543  9EE 003481B0 _ZNSt12_Vector_baseIPN5ELFIO7segmentESaIS2_EED2Ev
       2544  9EF 003481E0 _ZNSt12_Vector_baseIhSaIhEED2Ev
       2545  9F0 00348210 _ZNSt12_Vector_baseIiSaIiEED2Ev
       2546  9F1 00348240 _ZNSt12_Vector_baseIjSaIjEED2Ev
       2547  9F2 00348270 _ZNSt12_Vector_baseIySaIyEED2Ev
       2548  9F3 003686A0 _ZNSt20__uninitialized_copyILb0EE13__uninit_copyIN9__gnu_cxx17__normal_iteratorIPK10ConfigBankSt6vectorIS4_SaIS4_EEEEPS4_EET0_T_SD_SC_
       2549  9F4 00368940 _ZNSt20__uninitialized_copyILb0EE13__uninit_copyIN9__gnu_cxx17__normal_iteratorIPK11StorageBankSt6vectorIS4_SaIS4_EEEEPS4_EET0_T_SD_SC_
       2550  9F5 00368B00 _ZNSt20__uninitialized_copyILb0EE13__uninit_copyIN9__gnu_cxx17__normal_iteratorIPK12ConfigSectorSt6vectorIS4_SaIS4_EEEEPS4_EET0_T_SD_SC_
       2551  9F6 00368CB0 _ZNSt20__uninitialized_copyILb0EE13__uninit_copyIN9__gnu_cxx17__normal_iteratorIPK12Register_SVDSt6vectorIS4_SaIS4_EEEEPS4_EET0_T_SD_SC_
       2552  9F7 00368F80 _ZNSt20__uninitialized_copyILb0EE13__uninit_copyIN9__gnu_cxx17__normal_iteratorIPK13ConfigurationSt6vectorIS4_SaIS4_EEEEPS4_EET0_T_SD_SC_
       2553  9F8 00369220 _ZNSt20__uninitialized_copyILb0EE13__uninit_copyIN9__gnu_cxx17__normal_iteratorIPK13StorageConfigSt6vectorIS4_SaIS4_EEEEPS4_EET0_T_SD_SC_
       2554  9F9 003694B0 _ZNSt20__uninitialized_copyILb0EE13__uninit_copyIN9__gnu_cxx17__normal_iteratorIPK16ConfigConfPeriphSt6vectorIS4_SaIS4_EEEEPS4_EET0_T_SD_SC_
       2555  9FA 00369AC0 _ZNSt20__uninitialized_copyILb0EE13__uninit_copyIN9__gnu_cxx17__normal_iteratorIPK16bitConfiguartionSt6vectorIS4_SaIS4_EEEEPS4_EET0_T_SD_SC_
       2556  9FB 00369E30 _ZNSt20__uninitialized_copyILb0EE13__uninit_copyIN9__gnu_cxx17__normal_iteratorIPK19ConfiguartionSectorSt6vectorIS4_SaIS4_EEEEPS4_EET0_T_SD_SC_
       2557  9FC 0036A310 _ZNSt20__uninitialized_copyILb0EE13__uninit_copyIN9__gnu_cxx17__normal_iteratorIPK21ConfigurationCategorySt6vectorIS4_SaIS4_EEEEPS4_EET0_T_SD_SC_
       2558  9FD 0036A430 _ZNSt20__uninitialized_copyILb0EE13__uninit_copyIN9__gnu_cxx17__normal_iteratorIPK5CBankSt6vectorIS4_SaIS4_EEEEPS4_EET0_T_SD_SC_
       2559  9FE 0036A7D0 _ZNSt20__uninitialized_copyILb0EE13__uninit_copyIN9__gnu_cxx17__normal_iteratorIPK9CCategorySt6vectorIS4_SaIS4_EEEEPS4_EET0_T_SD_SC_
       2560  9FF 0036ADE0 _ZNSt3mapI7QStringxSt4lessIS0_ESaISt4pairIKS0_xEEEixEOS0_
       2561  A00 0036AFF0 _ZNSt3mapINSt7__cxx1112basic_stringIcSt11char_traitsIcESaIcEEESt4pairIiiESt4lessIS5_ESaIS6_IKS5_S7_EEEixEOS5_
       2562  A01 0036B120 _ZNSt3mapINSt7__cxx1112basic_stringIcSt11char_traitsIcESaIcEEESt6vectorI9SectorInfSaIS7_EESt4lessIS5_ESaISt4pairIKS5_S9_EEEixERSD_
       2563  A02 0036B370 _ZNSt3mapIjjSt4lessIjESaISt4pairIKjjEEEixERS3_
       2564  A03 0036F9D0 _ZNSt6vectorI10ConfigBankSaIS0_EE17_M_realloc_insertIJS0_EEEvN9__gnu_cxx17__normal_iteratorIPS0_S2_EEDpOT_
       2565  A04 0036FE10 _ZNSt6vectorI10ConfigBankSaIS0_EEC1ERKS2_
       2566  A05 0036FF00 _ZNSt6vectorI10ConfigBankSaIS0_EED1Ev
       2567  A06 00370200 _ZNSt6vectorI10SegmentSFISaIS0_EE17_M_realloc_insertIJRKS0_EEEvN9__gnu_cxx17__normal_iteratorIPS0_S2_EEDpOT_
       2568  A07 003703A0 _ZNSt6vectorI11CPeripheralSaIS0_EE17_M_realloc_insertIJRKS0_EEEvN9__gnu_cxx17__normal_iteratorIPS0_S2_EEDpOT_
       2569  A08 00370600 _ZNSt6vectorI11ReadBooleanSaIS0_EE17_M_realloc_insertIJS0_EEEvN9__gnu_cxx17__normal_iteratorIPS0_S2_EEDpOT_
       2570  A09 003708B0 _ZNSt6vectorI11ReadBooleanSaIS0_EEC1ERKS2_
       2571  A0A 00370A70 _ZNSt6vectorI11SegmentDataSaIS0_EE17_M_realloc_insertIJRKS0_EEEvN9__gnu_cxx17__normal_iteratorIPS0_S2_EEDpOT_
       2572  A0B 00370BD0 _ZNSt6vectorI11SegmentDataSaIS0_EE8_M_eraseEN9__gnu_cxx17__normal_iteratorIPS0_S2_EE
       2573  A0C 00370C10 _ZNSt6vectorI11SegmentDataSaIS0_EE9push_backERKS0_
       2574  A0D 00370C40 _ZNSt6vectorI11StorageBankSaIS0_EE17_M_realloc_insertIJS0_EEEvN9__gnu_cxx17__normal_iteratorIPS0_S2_EEDpOT_
       2575  A0E 00370F00 _ZNSt6vectorI11StorageBankSaIS0_EEC1ERKS2_
       2576  A0F 00371190 _ZNSt6vectorI11StorageBankSaIS0_EED1Ev
       2577  A10 00371240 _ZNSt6vectorI11relocationsSaIS0_EE17_M_realloc_insertIJRKS0_EEEvN9__gnu_cxx17__normal_iteratorIPS0_S2_EEDpOT_
       2578  A11 003713B0 _ZNSt6vectorI12ConfigPeriphSaIS0_EE17_M_realloc_insertIJS0_EEEvN9__gnu_cxx17__normal_iteratorIPS0_S2_EEDpOT_
       2579  A12 00371A40 _ZNSt6vectorI12ConfigPeriphSaIS0_EED1Ev
       2580  A13 00371E60 _ZNSt6vectorI12ConfigSectorSaIS0_EE17_M_realloc_insertIJS0_EEEvN9__gnu_cxx17__normal_iteratorIPS0_S2_EEDpOT_
       2581  A14 003720E0 _ZNSt6vectorI12ConfigSectorSaIS0_EED1Ev
       2582  A15 003722E0 _ZNSt6vectorI12Register_SVDSaIS0_EE17_M_realloc_insertIJS0_EEEvN9__gnu_cxx17__normal_iteratorIPS0_S2_EEDpOT_
       2583  A16 00372890 _ZNSt6vectorI12Register_SVDSaIS0_EED1Ev
       2584  A17 003729D0 _ZNSt6vectorI13ConfigurationSaIS0_EE17_M_realloc_insertIJS0_EEEvN9__gnu_cxx17__normal_iteratorIPS0_S2_EEDpOT_
       2585  A18 00372BB0 _ZNSt6vectorI13ConfigurationSaIS0_EED1Ev
       2586  A19 00372C60 _ZNSt6vectorI13StorageConfigSaIS0_EE17_M_realloc_insertIJS0_EEEvN9__gnu_cxx17__normal_iteratorIPS0_S2_EEDpOT_
       2587  A1A 00373250 _ZNSt6vectorI13StoragePeriphSaIS0_EE17_M_realloc_insertIJS0_EEEvN9__gnu_cxx17__normal_iteratorIPS0_S2_EEDpOT_
       2588  A1B 003739C0 _ZNSt6vectorI13StoragePeriphSaIS0_EED1Ev
       2589  A1C 00373BF0 _ZNSt6vectorI13StorageSectorSaIS0_EE17_M_realloc_insertIJRKS0_EEEvN9__gnu_cxx17__normal_iteratorIPS0_S2_EEDpOT_
       2590  A1D 00373EA0 _ZNSt6vectorI13StorageSectorSaIS0_EED1Ev
       2591  A1E 00373F20 _ZNSt6vectorI14ConfigCategorySaIS0_EE17_M_realloc_insertIJS0_EEEvN9__gnu_cxx17__normal_iteratorIPS0_S2_EEDpOT_
       2592  A1F 003741E0 _ZNSt6vectorI14Peripheral_SVDSaIS0_EE17_M_realloc_insertIJRKS0_EEEvN9__gnu_cxx17__normal_iteratorIPS0_S2_EEDpOT_
       2593  A20 00374600 _ZNSt6vectorI14Peripheral_SVDSaIS0_EED1Ev
       2594  A21 003747E0 _ZNSt6vectorI14program_headerSaIS0_EE17_M_realloc_insertIJRKS0_EEEvN9__gnu_cxx17__normal_iteratorIPS0_S2_EEDpOT_
       2595  A22 00374970 _ZNSt6vectorI14section_headerSaIS0_EE17_M_realloc_insertIJRKS0_EEEvN9__gnu_cxx17__normal_iteratorIPS0_S2_EEDpOT_
       2596  A23 00374D00 _ZNSt6vectorI15ConfigConditionSaIS0_EE17_M_realloc_insertIJS0_EEEvN9__gnu_cxx17__normal_iteratorIPS0_S2_EEDpOT_
       2597  A24 00374FE0 _ZNSt6vectorI15ConfigConditionSaIS0_EEC1ERKS2_
       2598  A25 00375100 _ZNSt6vectorI15ConfigConditionSaIS0_EED1Ev
       2599  A26 00375160 _ZNSt6vectorI15SegmentDataECSVSaIS0_EE17_M_realloc_insertIJRKS0_EEEvN9__gnu_cxx17__normal_iteratorIPS0_S2_EEDpOT_
       2600  A27 003752F0 _ZNSt6vectorI15SegmentDataMCSVSaIS0_EE17_M_realloc_insertIJRKS0_EEEvN9__gnu_cxx17__normal_iteratorIPS0_S2_EEDpOT_
       2601  A28 00375490 _ZNSt6vectorI16ConfigConfPeriphSaIS0_EE17_M_realloc_insertIJS0_EEEvN9__gnu_cxx17__normal_iteratorIPS0_S2_EEDpOT_
       2602  A29 00375700 _ZNSt6vectorI16ConfigConfPeriphSaIS0_EED1Ev
       2603  A2A 003757B0 _ZNSt6vectorI16bitConfiguartionSaIS0_EE17_M_realloc_insertIJRKS0_EEEvN9__gnu_cxx17__normal_iteratorIPS0_S2_EEDpOT_
       2604  A2B 00375B90 _ZNSt6vectorI16bitConfiguartionSaIS0_EED1Ev
       2605  A2C 00375CD0 _ZNSt6vectorI17ConfigurationBankSaIS0_EE17_M_realloc_insertIJS0_EEEvN9__gnu_cxx17__normal_iteratorIPS0_S2_EEDpOT_
       2606  A2D 00375FE0 _ZNSt6vectorI17ConfigurationBankSaIS0_EED1Ev
       2607  A2E 00376050 _ZNSt6vectorI17StoragePeripheralSaIS0_EE17_M_realloc_insertIJS0_EEEvN9__gnu_cxx17__normal_iteratorIPS0_S2_EEDpOT_
       2608  A2F 00376220 _ZNSt6vectorI19ConfiguartionSectorSaIS0_EE17_M_realloc_insertIJS0_EEEvN9__gnu_cxx17__normal_iteratorIPS0_S2_EEDpOT_
       2609  A30 00376440 _ZNSt6vectorI19ConfiguartionSectorSaIS0_EED1Ev
       2610  A31 00376600 _ZNSt6vectorI20StorageConfigurationSaIS0_EE17_M_realloc_insertIJRKS0_EEEvN9__gnu_cxx17__normal_iteratorIPS0_S2_EEDpOT_
       2611  A32 00376940 _ZNSt6vectorI20StorageConfigurationSaIS0_EED1Ev
       2612  A33 00376A00 _ZNSt6vectorI21ConfigurationCategorySaIS0_EE17_M_realloc_insertIJS0_EEEvN9__gnu_cxx17__normal_iteratorIPS0_S2_EEDpOT_
       2613  A34 00376C00 _ZNSt6vectorI21ConfigurationCategorySaIS0_EED1Ev
       2614  A35 00376E20 _ZNSt6vectorI23ConfigurationPeripheralSaIS0_EE17_M_realloc_insertIJS0_EEEvN9__gnu_cxx17__normal_iteratorIPS0_S2_EEDpOT_
       2615  A36 00377200 _ZNSt6vectorI23PeriphConfigurationConfSaIS0_EE17_M_realloc_insertIJS0_EEEvN9__gnu_cxx17__normal_iteratorIPS0_S2_EEDpOT_
       2616  A37 00377470 _ZNSt6vectorI3BitSaIS0_EE17_M_realloc_insertIJRKS0_EEEvN9__gnu_cxx17__normal_iteratorIPS0_S2_EEDpOT_
       2617  A38 00377AA0 _ZNSt6vectorI3BitSaIS0_EED1Ev
       2618  A39 00377BC0 _ZNSt6vectorI3TLVSaIS0_EE17_M_realloc_insertIJRKS0_EEEvN9__gnu_cxx17__normal_iteratorIPS0_S2_EEDpOT_
       2619  A3A 00377D30 _ZNSt6vectorI4BankSaIS0_EE17_M_realloc_insertIJRKS0_EEEvN9__gnu_cxx17__normal_iteratorIPS0_S2_EEDpOT_
       2620  A3B 00378030 _ZNSt6vectorI4BankSaIS0_EED1Ev
       2621  A3C 003780B0 _ZNSt6vectorI5CBankSaIS0_EE17_M_realloc_insertIJRKS0_EEEvN9__gnu_cxx17__normal_iteratorIPS0_S2_EEDpOT_
       2622  A3D 003782F0 _ZNSt6vectorI5OBcmdSaIS0_EE17_M_realloc_insertIJRKS0_EEEvN9__gnu_cxx17__normal_iteratorIPS0_S2_EEDpOT_
       2623  A3E 00378620 _ZNSt6vectorI5OBcmdSaIS0_EE8_M_eraseEN9__gnu_cxx17__normal_iteratorIPS0_S2_EE
       2624  A3F 003787A0 _ZNSt6vectorI5OBcmdSaIS0_EED1Ev
       2625  A40 00378820 _ZNSt6vectorI5notesSaIS0_EE17_M_realloc_insertIJRKS0_EEEvN9__gnu_cxx17__normal_iteratorIPS0_S2_EEDpOT_
       2626  A41 00378AF0 _ZNSt6vectorI6MemorySaIS0_EE17_M_realloc_insertIJRKS0_EEEvN9__gnu_cxx17__normal_iteratorIPS0_S2_EEDpOT_
       2627  A42 003793F0 _ZNSt6vectorI6MemorySaIS0_EE8_M_eraseEN9__gnu_cxx17__normal_iteratorIPS0_S2_EE
       2628  A43 0037A0B0 _ZNSt6vectorI6MemorySaIS0_EED1Ev
       2629  A44 0037A220 _ZNSt6vectorI6SectorSaIS0_EE17_M_realloc_insertIJRKS0_EEEvN9__gnu_cxx17__normal_iteratorIPS0_S2_EEDpOT_
       2630  A45 0037A3E0 _ZNSt6vectorI6UpDataSaIS0_EE17_M_realloc_insertIJRKS0_EEEvN9__gnu_cxx17__normal_iteratorIPS0_S2_EEDpOT_
       2631  A46 0037A530 _ZNSt6vectorI7CSectorSaIS0_EE17_M_realloc_insertIJRKS0_EEEvN9__gnu_cxx17__normal_iteratorIPS0_S2_EEDpOT_
       2632  A47 0037A760 _ZNSt6vectorI7CSectorSaIS0_EED1Ev
       2633  A48 0037A7F0 _ZNSt6vectorI7SW_BKPTSaIS0_EE17_M_realloc_insertIJRKS0_EEEvN9__gnu_cxx17__normal_iteratorIPS0_S2_EEDpOT_
       2634  A49 0037A960 _ZNSt6vectorI7WordCmdSaIS0_EE17_M_realloc_insertIJRKS0_EEEvN9__gnu_cxx17__normal_iteratorIPS0_S2_EEDpOT_
       2635  A4A 0037AB60 _ZNSt6vectorI7symbolsSaIS0_EE17_M_realloc_insertIJRKS0_EEEvN9__gnu_cxx17__normal_iteratorIPS0_S2_EEDpOT_
       2636  A4B 0037AE60 _ZNSt6vectorI8StoragePSaIS0_EE17_M_realloc_insertIJRKS0_EEEvN9__gnu_cxx17__normal_iteratorIPS0_S2_EEDpOT_
       2637  A4C 0037AFB0 _ZNSt6vectorI8bitValueSaIS0_EE17_M_realloc_insertIJRKS0_EEEvN9__gnu_cxx17__normal_iteratorIPS0_S2_EEDpOT_
       2638  A4D 0037B1C0 _ZNSt6vectorI8bitValueSaIS0_EED1Ev
       2639  A4E 0037B230 _ZNSt6vectorI9BitsValueSaIS0_EE17_M_realloc_insertIJS0_EEEvN9__gnu_cxx17__normal_iteratorIPS0_S2_EEDpOT_
       2640  A4F 0037B4C0 _ZNSt6vectorI9BitsValueSaIS0_EED1Ev
       2641  A50 0037B540 _ZNSt6vectorI9CCategorySaIS0_EE17_M_realloc_insertIJRKS0_EEEvN9__gnu_cxx17__normal_iteratorIPS0_S2_EEDpOT_
       2642  A51 0037B750 _ZNSt6vectorI9CCategorySaIS0_EED1Ev
       2643  A52 0037B820 _ZNSt6vectorI9Field_SVDSaIS0_EE17_M_realloc_insertIJS0_EEEvN9__gnu_cxx17__normal_iteratorIPS0_S2_EEDpOT_
       2644  A53 0037BCE0 _ZNSt6vectorI9Field_SVDSaIS0_EED1Ev
       2645  A54 0037BD90 _ZNSt6vectorI9SectorInfSaIS0_EE17_M_realloc_insertIJRKS0_EEEvN9__gnu_cxx17__normal_iteratorIPS0_S2_EEDpOT_
       2646  A55 0037C230 _ZNSt6vectorI9SectorInfSaIS0_EEC1ERKS2_
       2647  A56 0037C3C0 _ZNSt6vectorI9SectorInfSaIS0_EED1Ev
       2648  A57 0037C470 _ZNSt6vectorI9partitionSaIS0_EE17_M_realloc_insertIJRKS0_EEEvN9__gnu_cxx17__normal_iteratorIPS0_S2_EEDpOT_
       2649  A58 0037C610 _ZNSt6vectorINSt7__cxx1112basic_stringIcSt11char_traitsIcESaIcEEESaIS5_EE17_M_realloc_insertIJRKS5_EEEvN9__gnu_cxx17__normal_iteratorIPS5_S7_EEDpOT_
       2650  A59 0037C840 _ZNSt6vectorINSt7__cxx1112basic_stringIcSt11char_traitsIcESaIcEEESaIS5_EEC1ERKS7_
       2651  A5A 0037C930 _ZNSt6vectorINSt7__cxx1112basic_stringIcSt11char_traitsIcESaIcEEESaIS5_EED1Ev
       2652  A5B 0037C9B0 _ZNSt6vectorIP22AbstractFlashLoaderMngSaIS1_EE17_M_realloc_insertIJRKS1_EEEvN9__gnu_cxx17__normal_iteratorIPS1_S3_EEDpOT_
       2653  A5C 0037CB00 _ZNSt6vectorIP22AbstractFlashLoaderMngSaIS1_EE17_M_realloc_insertIJS1_EEEvN9__gnu_cxx17__normal_iteratorIPS1_S3_EEDpOT_
       2654  A5D 0037CC50 _ZNSt6vectorIP22AbstractFlashLoaderMngSaIS1_EE8_M_eraseEN9__gnu_cxx17__normal_iteratorIPS1_S3_EES7_
       2655  A5E 0037CCA0 _ZNSt6vectorIP3bitSaIS1_EE17_M_realloc_insertIJRKS1_EEEvN9__gnu_cxx17__normal_iteratorIPS1_S3_EEDpOT_
       2656  A5F 0037CDF0 _ZNSt6vectorIP6TargetSaIS1_EE17_M_realloc_insertIJS1_EEEvN9__gnu_cxx17__normal_iteratorIPS1_S3_EEDpOT_
       2657  A60 0037CF40 _ZNSt6vectorIP9DFUDeviceSaIS1_EE17_M_realloc_insertIJS1_EEEvN9__gnu_cxx17__normal_iteratorIPS1_S3_EEDpOT_
       2658  A61 0037D090 _ZNSt6vectorIP9DFUDeviceSaIS1_EE8_M_eraseEN9__gnu_cxx17__normal_iteratorIPS1_S3_EE
       2659  A62 0037D0D0 _ZNSt6vectorIPFdvESaIS1_EE17_M_realloc_insertIJRKS1_EEEvN9__gnu_cxx17__normal_iteratorIPS1_S3_EEDpOT_
       2660  A63 0037D220 _ZNSt6vectorIPN5ELFIO7sectionESaIS2_EE17_M_realloc_insertIJRKS2_EEEvN9__gnu_cxx17__normal_iteratorIPS2_S4_EEDpOT_
       2661  A64 0037D370 _ZNSt6vectorIPN5ELFIO7segmentESaIS2_EE17_M_realloc_insertIJRKS2_EEEvN9__gnu_cxx17__normal_iteratorIPS2_S4_EEDpOT_
       2662  A65 0037D4C0 _ZNSt6vectorIPdSaIS0_EE17_M_realloc_insertIJS0_EEEvN9__gnu_cxx17__normal_iteratorIPS0_S2_EEDpOT_
       2663  A66 0037D610 _ZNSt6vectorIS_IjSaIjEESaIS1_EE17_M_realloc_insertIJRKS1_EEEvN9__gnu_cxx17__normal_iteratorIPS1_S3_EEDpOT_
       2664  A67 0037D8D0 _ZNSt6vectorISt4pairINSt7__cxx1112basic_stringIcSt11char_traitsIcESaIcEEEbESaIS7_EE17_M_realloc_insertIJS7_EEEvN9__gnu_cxx17__normal_iteratorIPS7_S9_EEDpOT_
       2665  A68 0037DB60 _ZNSt6vectorISt4pairIjjESaIS1_EE17_M_realloc_insertIJRKS1_EEEvN9__gnu_cxx17__normal_iteratorIPS1_S3_EEDpOT_
       2666  A69 0037DCB0 _ZNSt6vectorIdSaIdEE17_M_default_appendEy
       2667  A6A 0037DE50 _ZNSt6vectorIdSaIdEE17_M_realloc_insertIJRKdEEEvN9__gnu_cxx17__normal_iteratorIPdS1_EEDpOT_
       2668  A6B 0037DFB0 _ZNSt6vectorIhSaIhEE17_M_realloc_insertIJRKhEEEvN9__gnu_cxx17__normal_iteratorIPhS1_EEDpOT_
       2669  A6C 0037E100 _ZNSt6vectorIiSaIiEE17_M_realloc_insertIJRKiEEEvN9__gnu_cxx17__normal_iteratorIPiS1_EEDpOT_
       2670  A6D 0037E250 _ZNSt6vectorIiSaIiEE17_M_realloc_insertIJiEEEvN9__gnu_cxx17__normal_iteratorIPiS1_EEDpOT_
       2671  A6E 0037E3A0 _ZNSt6vectorIjSaIjEE17_M_realloc_insertIJRKjEEEvN9__gnu_cxx17__normal_iteratorIPjS1_EEDpOT_
       2672  A6F 0037E4F0 _ZNSt6vectorIjSaIjEE17_M_realloc_insertIJjEEEvN9__gnu_cxx17__normal_iteratorIPjS1_EEDpOT_
       2673  A70 0037E640 _ZNSt6vectorItSaItEE17_M_realloc_insertIJRKtEEEvN9__gnu_cxx17__normal_iteratorIPtS1_EEDpOT_
       2674  A71 0037E790 _ZNSt6vectorIySaIyEE17_M_realloc_insertIJRKyEEEvN9__gnu_cxx17__normal_iteratorIPyS1_EEDpOT_
       2675  A72 00388AC0 _ZNSt7__cxx1115basic_stringbufIcSt11char_traitsIcESaIcEED1Ev
       2676  A73 00395590 _ZNSt8_Rb_treeI7QStringSt4pairIKS0_8QVariantESt10_Select1stIS4_ESt4lessIS0_ESaIS4_EE16_M_insert_uniqueIS4_EES1_ISt17_Rb_tree_iteratorIS4_EbEOT_
       2677  A74 00395820 _ZNSt8_Rb_treeI7QStringSt4pairIKS0_8QVariantESt10_Select1stIS4_ESt4lessIS0_ESaIS4_EE24_M_get_insert_unique_posERS2_
       2678  A75 003959A0 _ZNSt8_Rb_treeI7QStringSt4pairIKS0_S0_ESt10_Select1stIS3_ESt4lessIS0_ESaIS3_EE16_M_insert_uniqueIS3_EES1_ISt17_Rb_tree_iteratorIS3_EbEOT_
       2679  A76 00395C20 _ZNSt8_Rb_treeI7QStringSt4pairIKS0_S0_ESt10_Select1stIS3_ESt4lessIS0_ESaIS3_EE24_M_get_insert_unique_posERS2_
       2680  A77 00395DA0 _ZNSt8_Rb_treeI7QStringSt4pairIKS0_xESt10_Select1stIS3_ESt4lessIS0_ESaIS3_EE17_M_emplace_uniqueIJS1_IS0_iEEEES1_ISt17_Rb_tree_iteratorIS3_EbEDpOT_
       2681  A78 00395EF0 _ZNSt8_Rb_treeI7QStringSt4pairIKS0_xESt10_Select1stIS3_ESt4lessIS0_ESaIS3_EE24_M_get_insert_unique_posERS2_
       2682  A79 00396070 _ZNSt8_Rb_treeI7QStringSt4pairIKS0_xESt10_Select1stIS3_ESt4lessIS0_ESaIS3_EE29_M_get_insert_hint_unique_posESt23_Rb_tree_const_iteratorIS3_ERS2_
       2683  A7A 003962F0 _ZNSt8_Rb_treeINSt7__cxx1112basic_stringIcSt11char_traitsIcESaIcEEESt4pairIKS5_N4Expr8OperatorEESt10_Select1stISA_ESt4lessIS5_ESaISA_EE24_M_get_insert_unique_posERS7_
       2684  A7B 00396460 _ZNSt8_Rb_treeINSt7__cxx1112basic_stringIcSt11char_traitsIcESaIcEEESt4pairIKS5_N4Expr8OperatorEESt10_Select1stISA_ESt4lessIS5_ESaISA_EE4findERS7_
       2685  A7C 00396560 _ZNSt8_Rb_treeINSt7__cxx1112basic_stringIcSt11char_traitsIcESaIcEEESt4pairIKS5_S6_IiiEESt10_Select1stIS9_ESt4lessIS5_ESaIS9_EE24_M_get_insert_unique_posERS7_
       2686  A7D 003966D0 _ZNSt8_Rb_treeINSt7__cxx1112basic_stringIcSt11char_traitsIcESaIcEEESt4pairIKS5_S6_IiiEESt10_Select1stIS9_ESt4lessIS5_ESaIS9_EE4findERS7_
       2687  A7E 003967D0 _ZNSt8_Rb_treeINSt7__cxx1112basic_stringIcSt11char_traitsIcESaIcEEESt4pairIKS5_St6vectorI9SectorInfSaIS9_EEESt10_Select1stISC_ESt4lessIS5_ESaISC_EE20_Reuse_or_alloc_nodeclIRKSC_EEPSt13_Rb_tree_nodeISC_EOT_
       2688  A7F 00396A20 _ZNSt8_Rb_treeINSt7__cxx1112basic_stringIcSt11char_traitsIcESaIcEEESt4pairIKS5_St6vectorI9SectorInfSaIS9_EEESt10_Select1stISC_ESt4lessIS5_ESaISC_EE24_M_get_insert_unique_posERS7_
       2689  A80 00396B90 _ZNSt8_Rb_treeINSt7__cxx1112basic_stringIcSt11char_traitsIcESaIcEEESt4pairIKS5_St6vectorI9SectorInfSaIS9_EEESt10_Select1stISC_ESt4lessIS5_ESaISC_EE29_M_get_insert_hint_unique_posESt23_Rb_tree_const_iteratorISC_ERS7_
       2690  A81 00396E10 _ZNSt8_Rb_treeINSt7__cxx1112basic_stringIcSt11char_traitsIcESaIcEEESt4pairIKS5_St6vectorI9SectorInfSaIS9_EEESt10_Select1stISC_ESt4lessIS5_ESaISC_EE7_M_copyILb0ENSI_20_Reuse_or_alloc_nodeEEEPSt13_Rb_tree_nodeISC_ESN_PSt18_Rb_tree_node_baseRT0_
       2691  A82 00397130 _ZNSt8_Rb_treeINSt7__cxx1112basic_stringIcSt11char_traitsIcESaIcEEESt4pairIKS5_St6vectorI9SectorInfSaIS9_EEESt10_Select1stISC_ESt4lessIS5_ESaISC_EE8_M_eraseEPSt13_Rb_tree_nodeISC_E
       2692  A83 00397230 _ZNSt8_Rb_treeIhSt4pairIKhPKcESt10_Select1stIS4_ESt4lessIhESaIS4_EE16_M_insert_uniqueIS4_EES0_ISt17_Rb_tree_iteratorIS4_EbEOT_
       2693  A84 003972F0 _ZNSt8_Rb_treeIhSt4pairIKhPKcESt10_Select1stIS4_ESt4lessIhESaIS4_EE24_M_get_insert_unique_posERS1_
       2694  A85 003973C0 _ZNSt8_Rb_treeIiSt4pairIKi7QStringESt10_Select1stIS3_ESt4lessIiESaIS3_EE24_M_get_insert_unique_posERS1_
       2695  A86 00397490 _ZNSt8_Rb_treeIiSt4pairIKiiESt10_Select1stIS2_ESt4lessIiESaIS2_EE24_M_get_insert_unique_posERS1_
       2696  A87 00397560 _ZNSt8_Rb_treeIjSt4pairIKjjESt10_Select1stIS2_ESt4lessIjESaIS2_EE24_M_get_insert_unique_posERS1_
       2697  A88 00397630 _ZNSt8_Rb_treeItSt4pairIKtPKcESt10_Select1stIS4_ESt4lessItESaIS4_EE24_M_get_insert_unique_posERS1_
       2698  A89 0039B220 _ZSt11__remove_ifIN9__gnu_cxx17__normal_iteratorIPP22AbstractFlashLoaderMngSt6vectorIS3_SaIS3_EEEENS0_5__ops16_Iter_equals_valIKS3_EEET_SD_SD_T0_
       2699  A8A 0039B270 _ZSt13__adjust_heapIN9__gnu_cxx17__normal_iteratorIPP9DFUDeviceSt6vectorIS3_SaIS3_EEEExS3_NS0_5__ops15_Iter_comp_iterI18P_CompareDFUDeviceEEEvT_T0_SE_T1_T2_
       2700  A8B 0039B3E0 _ZSt13__heap_selectIN9__gnu_cxx17__normal_iteratorIP5OBcmdSt6vectorIS2_SaIS2_EEEENS0_5__ops15_Iter_less_iterEEvT_SA_SA_T0_
       2701  A8C 0039C420 _ZSt16__insertion_sortIN9__gnu_cxx17__normal_iteratorIPP9DFUDeviceSt6vectorIS3_SaIS3_EEEENS0_5__ops15_Iter_comp_iterI18P_CompareDFUDeviceEEEvT_SD_T0_
       2702  A8D 0039C4E0 _ZSt16__introsort_loopIN9__gnu_cxx17__normal_iteratorIPP9DFUDeviceSt6vectorIS3_SaIS3_EEEExNS0_5__ops15_Iter_comp_iterI18P_CompareDFUDeviceEEEvT_SD_T0_T1_
       2703  A8E 0039DE80 _ZSt25__unguarded_linear_insertIN9__gnu_cxx17__normal_iteratorIPP9DFUDeviceSt6vectorIS3_SaIS3_EEEENS0_5__ops14_Val_comp_iterI18P_CompareDFUDeviceEEEvT_T0_
       2704  A8F 0039E9D0 _ZSt4findIN9__gnu_cxx17__normal_iteratorIPP22AbstractFlashLoaderMngSt6vectorIS3_SaIS3_EEEEP16FlashLoaderMngBlET_SB_SB_RKT0_
       2705  A90 0039EAB0 _ZSt4swapI5OBcmdENSt9enable_ifIXsrSt6__and_IJSt6__not_ISt15__is_tuple_likeIT_EESt21is_move_constructibleIS5_ESt18is_move_assignableIS5_EEE5valueEvE4typeERS5_SF_
       2706  A91 003A19F0 _ZStplIcSt11char_traitsIcESaIcEENSt7__cxx1112basic_stringIT_T0_T1_EEPKS5_RKS8_
       2707  A92 00435F20 _ZTI11SecurityExt
       2708  A93 00435F30 _ZTI12CANInterface
       2709  A94 00435F50 _ZTI12I2CInterface
       2710  A95 00435F70 _ZTI12SPIInterface
       2711  A96 00435F90 _ZTI12USBInterface
       2712  A97 00435FB0 _ZTI13USBSSPSecuExt
       2713  A98 00435FD0 _ZTI13UartInterface
       2714  A99 00435FF0 _ZTI14DebugInterface
       2715  A9A 00436010 _ZTI14FlashLoaderMng
       2716  A9B 00436030 _ZTI14ProgramManager
       2717  A9C 00436040 _ZTI15JLink_Interface
       2718  A9D 00436060 _ZTI15SecurityExtRSSe
       2719  A9E 00436080 _ZTI15SecurityExtSSFI
       2720  A9F 004360A0 _ZTI15TargetInterface
       2721  AA0 004360C0 _ZTI16FlashLoaderMngBl
       2722  AA1 004360E0 _ZTI16ST_LINKInterface
       2723  AA2 00436100 _ZTI16SerialSSPSecuExt
       2724  AA3 00436120 _ZTI19BootloaderInterface
       2725  AA4 00436140 _ZTI20USBSecurityExtension
       2726  AA5 00436160 _ZTI22AbstractFlashLoaderMng
       2727  AA6 00436170 _ZTI22SecurityExtRSSeOneShot
       2728  AA7 00436180 _ZTI23SerialSecurityExtension
       2729  AA8 004361A0 _ZTI27SerialSecurityExtensionRSSe
       2730  AA9 004361C0 _ZTI3Brg
       2731  AAA 004361D0 _ZTI5DbgIf
       2732  AAB 004361E0 _ZTI5ObKey
       2733  AAC 00436210 _ZTI6DbgDev
       2734  AAD 00436230 _ZTI6Helper
       2735  AAE 00436250 _ZTI7QObject
       2736  AAF 00436260 _ZTI8DbgJlink
       2737  AB0 00436360 _ZTIN4Expr5ErrorE
       2738  AB1 00436380 _ZTIN5ELFIO10elf_headerE
       2739  AB2 00436390 _ZTIN5ELFIO12section_implINS_10Elf32_ShdrEEE
       2740  AB3 004363B0 _ZTIN5ELFIO12section_implINS_10Elf64_ShdrEEE
       2741  AB4 004363D0 _ZTIN5ELFIO12segment_implINS_10Elf32_PhdrEEE
       2742  AB5 004363F0 _ZTIN5ELFIO12segment_implINS_10Elf64_PhdrEEE
       2743  AB6 00436410 _ZTIN5ELFIO15elf_header_implINS_10Elf32_EhdrEEE
       2744  AB7 00436430 _ZTIN5ELFIO15elf_header_implINS_10Elf64_EhdrEEE
       2745  AB8 00436450 _ZTIN5ELFIO7sectionE
       2746  AB9 00436460 _ZTIN5ELFIO7segmentE
       2747  ABA 00436570 _ZTINSt10filesystem7__cxx1116filesystem_errorE
       2748  ABB 00436DB0 _ZTINSt6locale5facetE
       2749  ABC 004375B0 _ZTISt11logic_error
       2750  ABD 004375F0 _ZTISt12codecvt_base
       2751  ABE 00437680 _ZTISt12out_of_range
       2752  ABF 004376A0 _ZTISt12system_error
       2753  AC0 004377F0 _ZTISt13runtime_error
       2754  AC1 00437FD0 _ZTISt23__codecvt_abstract_baseIwciE
       2755  AC2 00438170 _ZTISt7codecvtIwciE
       2756  AC3 00438400 _ZTISt9bad_alloc
       2757  AC4 00438460 _ZTISt9exception
       2758  AC5 00438510 _ZTIZNSt10filesystem7__cxx114path10_S_convertIcEEDaPKT_S5_E5_UCvt
       2759  AC6 00438530 _ZTS11SecurityExt
       2760  AC7 00438540 _ZTS12CANInterface
       2761  AC8 00438550 _ZTS12I2CInterface
       2762  AC9 00438560 _ZTS12SPIInterface
       2763  ACA 00438570 _ZTS12USBInterface
       2764  ACB 00438580 _ZTS13USBSSPSecuExt
       2765  ACC 00438590 _ZTS13UartInterface
       2766  ACD 004385A0 _ZTS14DebugInterface
       2767  ACE 004385C0 _ZTS14FlashLoaderMng
       2768  ACF 004385E0 _ZTS14ProgramManager
       2769  AD0 00438600 _ZTS15JLink_Interface
       2770  AD1 00438620 _ZTS15SecurityExtRSSe
       2771  AD2 00438640 _ZTS15SecurityExtSSFI
       2772  AD3 00438660 _ZTS15TargetInterface
       2773  AD4 00438680 _ZTS16FlashLoaderMngBl
       2774  AD5 004386A0 _ZTS16ST_LINKInterface
       2775  AD6 004386C0 _ZTS16SerialSSPSecuExt
       2776  AD7 004386E0 _ZTS19BootloaderInterface
       2777  AD8 00438700 _ZTS20USBSecurityExtension
       2778  AD9 00438720 _ZTS22AbstractFlashLoaderMng
       2779  ADA 00438740 _ZTS22SecurityExtRSSeOneShot
       2780  ADB 00438760 _ZTS23SerialSecurityExtension
       2781  ADC 00438780 _ZTS27SerialSecurityExtensionRSSe
       2782  ADD 004387A0 _ZTS3Brg
       2783  ADE 004387B0 _ZTS5DbgIf
       2784  ADF 004387C0 _ZTS5ObKey
       2785  AE0 004387D0 _ZTS6DbgDev
       2786  AE1 004387E0 _ZTS6Helper
       2787  AE2 004387F0 _ZTS7QObject
       2788  AE3 00438800 _ZTS8DbgJlink
       2789  AE4 00438A00 _ZTSN4Expr5ErrorE
       2790  AE5 00438A10 _ZTSN5ELFIO10elf_headerE
       2791  AE6 00438A40 _ZTSN5ELFIO12section_implINS_10Elf32_ShdrEEE
       2792  AE7 00438A80 _ZTSN5ELFIO12section_implINS_10Elf64_ShdrEEE
       2793  AE8 00438AC0 _ZTSN5ELFIO12segment_implINS_10Elf32_PhdrEEE
       2794  AE9 00438B00 _ZTSN5ELFIO12segment_implINS_10Elf64_PhdrEEE
       2795  AEA 00438B40 _ZTSN5ELFIO15elf_header_implINS_10Elf32_EhdrEEE
       2796  AEB 00438B80 _ZTSN5ELFIO15elf_header_implINS_10Elf64_EhdrEEE
       2797  AEC 00438BC0 _ZTSN5ELFIO7sectionE
       2798  AED 00438BE0 _ZTSN5ELFIO7segmentE
       2799  AEE 00438E00 _ZTSNSt10filesystem7__cxx1116filesystem_errorE
       2800  AEF 00439680 _ZTSNSt6locale5facetE
       2801  AF0 0043A0C0 _ZTSSt11logic_error
       2802  AF1 0043A0E0 _ZTSSt12codecvt_base
       2803  AF2 0043A180 _ZTSSt12out_of_range
       2804  AF3 0043A1A0 _ZTSSt12system_error
       2805  AF4 0043A3A0 _ZTSSt13runtime_error
       2806  AF5 0043AE80 _ZTSSt23__codecvt_abstract_baseIwciE
       2807  AF6 0043B030 _ZTSSt7codecvtIwciE
       2808  AF7 0043B2C0 _ZTSSt9bad_alloc
       2809  AF8 0043B360 _ZTSSt9exception
       2810  AF9 0043B4A0 _ZTSZNSt10filesystem7__cxx114path10_S_convertIcEEDaPKT_S5_E5_UCvt
       2811  AFA 0043B7E0 _ZTV11SecurityExt
       2812  AFB 0043B950 _ZTV12CANInterface
       2813  AFC 0043BAD0 _ZTV12I2CInterface
       2814  AFD 0043BC50 _ZTV12SPIInterface
       2815  AFE 0043BDD0 _ZTV12USBInterface
       2816  AFF 0043BF50 _ZTV13USBSSPSecuExt
       2817  B00 0043C0C0 _ZTV13UartInterface
       2818  B01 0043C240 _ZTV14DebugInterface
       2819  B02 0043C410 _ZTV14FlashLoaderMng
       2820  B03 0043C500 _ZTV14ProgramManager
       2821  B04 0043C5B0 _ZTV15JLink_Interface
       2822  B05 0043C780 _ZTV15SecurityExtRSSe
       2823  B06 0043C8F0 _ZTV15SecurityExtSSFI
       2824  B07 0043CA60 _ZTV15TargetInterface
       2825  B08 0043CB70 _ZTV16FlashLoaderMngBl
       2826  B09 0043CC60 _ZTV16ST_LINKInterface
       2827  B0A 0043CE30 _ZTV16SerialSSPSecuExt
       2828  B0B 0043CFA0 _ZTV19BootloaderInterface
       2829  B0C 0043D120 _ZTV20USBSecurityExtension
       2830  B0D 0043D290 _ZTV22AbstractFlashLoaderMng
       2831  B0E 0043D380 _ZTV23SerialSecurityExtension
       2832  B0F 0043D4F0 _ZTV27SerialSecurityExtensionRSSe
       2833  B10 0043D660 _ZTV3Brg
       2834  B11 0043D680 _ZTV5ObKey
       2835  B12 0043D7F0 _ZTV6DbgDev
       2836  B13 0043D850 _ZTV6Helper
       2837  B14 0043D8C0 _ZTV8DbgJlink
       2838  B15 0043DB80 _ZTVN4Expr5ErrorE
       2839  B16 0043DBB0 _ZTVN5ELFIO12section_implINS_10Elf32_ShdrEEE
       2840  B17 0043DCC0 _ZTVN5ELFIO12section_implINS_10Elf64_ShdrEEE
       2841  B18 0043DDD0 _ZTVN5ELFIO12segment_implINS_10Elf32_PhdrEEE
       2842  B19 0043DEB0 _ZTVN5ELFIO12segment_implINS_10Elf64_PhdrEEE
       2843  B1A 0043DF90 _ZTVN5ELFIO15elf_header_implINS_10Elf32_EhdrEEE
       2844  B1B 0043E0B0 _ZTVN5ELFIO15elf_header_implINS_10Elf64_EhdrEEE
       2845  B1C 00441F20 _ZTVZNSt10filesystem7__cxx114path10_S_convertIcEEDaPKT_S5_E5_UCvt
       2846  B1D 003ACD20 _ZZN11QMetaTypeIdI8QJSValueE14qt_metatype_idEvE11metatype_id
       2847  B1E 003A43F0 _ZZN9QtPrivate16QMetaTypeForTypeI6HelperE7getDtorEvENUlPKNS_18QMetaTypeInterfaceEPvE_4_FUNES5_S6_
       2848  B1F 003A4400 _ZZN9QtPrivate16QMetaTypeForTypeI7QStringE10getCopyCtrEvENUlPKNS_18QMetaTypeInterfaceEPvPKvE_4_FUNES5_S6_S8_
       2849  B20 003A4420 _ZZN9QtPrivate16QMetaTypeForTypeI7QStringE10getMoveCtrEvENUlPKNS_18QMetaTypeInterfaceEPvS6_E_4_FUNES5_S6_S6_
       2850  B21 003A4450 _ZZN9QtPrivate16QMetaTypeForTypeI7QStringE13getDefaultCtrEvENUlPKNS_18QMetaTypeInterfaceEPvE_4_FUNES5_S6_
       2851  B22 003A4470 _ZZN9QtPrivate16QMetaTypeForTypeI7QStringE7getDtorEvENUlPKNS_18QMetaTypeInterfaceEPvE_4_FUNES5_S6_
       2852  B23 003A4490 _ZZN9QtPrivate16QMetaTypeForTypeI8QJSValueE10getCopyCtrEvENUlPKNS_18QMetaTypeInterfaceEPvPKvE_4_FUNES5_S6_S8_
       2853  B24 003A44A0 _ZZN9QtPrivate16QMetaTypeForTypeI8QJSValueE10getMoveCtrEvENUlPKNS_18QMetaTypeInterfaceEPvS6_E_4_FUNES5_S6_S6_
       2854  B25 003A44B0 _ZZN9QtPrivate16QMetaTypeForTypeI8QJSValueE13getDefaultCtrEvENUlPKNS_18QMetaTypeInterfaceEPvE_4_FUNES5_S6_
       2855  B26 003A44C0 _ZZN9QtPrivate16QMetaTypeForTypeI8QJSValueE17getLegacyRegisterEvENUlvE_4_FUNEv
       2856  B27 003A45A0 _ZZN9QtPrivate16QMetaTypeForTypeI8QJSValueE7getDtorEvENUlPKNS_18QMetaTypeInterfaceEPvE_4_FUNES5_S6_
       2857  B28 003A45B0 _ZZNSt10filesystem7__cxx114path10_S_convertIcEEDaPKT_S5_EN5_UCvtD0Ev
       2858  B29 003A45E0 _ZZNSt10filesystem7__cxx114path10_S_convertIcEEDaPKT_S5_EN5_UCvtD1Ev
       2859  B2A 004421A0 _ZZNSt8__detail18__to_chars_10_implIjEEvPcjT_E8__digits
       2860  B2B 003A47B0 _ZeqRK7QStringS1_
       2861  B2C 002B5230 __emutls_get_address
       2862  B2D 002B5430 __emutls_register_common
       2863  B2E 0049FB08 _ap1
       2864  B2F 0049FB10 _device1
       2865  B30 0000F550 abortCommand
       2866  B31 004A1710 active_contexts_list
       2867  B32 004A0680 active_contexts_lock
       2868  B33 004A0BD0 alloc
       2869  B34 000064F0 antiRollBack
       2870  B35 00007520 authKeyLock
       2871  B36 0000DE70 autoDetectHsm
       2872  B37 00021270 automaticMode
       2873  B38 0049E440 bcm4_val
       2874  B39 0049FB60 cert
       2875  B3A 000041C0 checkBlank
       2876  B3B 00007970 checkDeviceConnection
       2877  B3C 0049FB18 checked
       2878  B3D 0049F680 cnd
       2879  B3E 00004220 compareFlashWithFile
       2880  B3F 000042A0 compareTwoFiles
       2881  B40 0001CD40 connectCanBootloader
       2882  B41 0001C900 connectDfuBootloader
       2883  B42 0001C640 connectDfuBootloader2
       2884  B43 0001CEA0 connectI2cBootloader
       2885  B44 00018D20 connectJLink
       2886  B45 0001CB70 connectSpiBootloader
       2887  B46 0001A6A0 connectStLink
       2888  B47 0001C080 connectUsartBootloader
       2889  B48 0049E218 console
       2890  B49 0049C0B0 count
       2891  B4A 00008910 createKmsCredential
       2892  B4B 00018180 createTargetInterfaceWithoutConnection
       2893  B4C 003A93F8 credential
       2894  B4D 0049C168 crypto
       2895  B4E 0049C160 cycle
       2896  B4F 0049F760 data_write
       2897  B50 00003270 deleteInterfaceList
       2898  B51 00002FF0 deleteLoaders
       2899  B52 0049C030 deselectNonExistingLoader
       2900  B53 00003380 deselectNonExistingLoaders
       2901  B54 0049C800 device_Banks
       2902  B55 0049C820 device_gen_inf
       2903  B56 0049C808 device_sectors
       2904  B57 0049C828 dfuList
       2905  B58 00003060 disconnect
       2906  B59 0049C060 discovered_devices
       2907  B5A 0027E090 discovered_devs_append
       2908  B5B 0049E1D0 displayMng
       2909  B5C 004A0310 displayMngG
       2910  B5D 0000CE30 downloadFile
       2911  B5E 00009DD0 editSector
       2912  B5F 0049F6A0 eng
       2913  B60 00002660 execute
       2914  B61 0000F9F0 executeOtpFileDownloadCmd
       2915  B62 0000FD50 executeOtpLockCmd
       2916  B63 0000FBA0 executeOtpWriteCmd
       2917  B64 00002860 fastRomInitOptionBytesInterface
       2918  B65 0049C098 fileManager
       2919  B66 00002D10 fileOpen
       2920  B67 00008A20 fillMemory
       2921  B68 00006100 firmwareDelete
       2922  B69 00012C80 firmwareUpgrade
       2923  B6A 0049C7F8 fobG
       2924  B6B 00002F90 freeFileData
       2925  B6C 00004E60 freeLibraryMemory
       2926  B6D 00004540 freeSvdData
       2927  B6E 0049CBCC gCanceled
       2928  B6F 003A9014 gDiscovery
       2929  B70 0049CB40 gPortName
       2930  B71 0049C320 gcert
       2931  B72 0001EAE0 getAltSetting
       2932  B73 0001D000 getAuthID
       2933  B74 00003390 getCancelPointer
       2934  B75 00003500 getCertPointer
       2935  B76 00004BC0 getCheckSum
       2936  B77 00021A60 getChipCertificate
       2937  B78 000045B0 getCoreState
       2938  B79 00003580 getCountPointer
       2939  B7A 00003550 getCryptoPointer
       2940  B7B 00002770 getDeviceGeneralInf
       2941  B7C 0001E980 getDeviceName
       2942  B7D 00003570 getDevicePointer
       2943  B7E 00001FB0 getDfuDeviceList
       2944  B7F 000034D0 getDiscoveryPointer
       2945  B80 00009740 getExternalFlashSize
       2946  B81 00009670 getExternalFlashType
       2947  B82 0001F1C0 getExternalLoaders
       2948  B83 000053A0 getFactoryResetH5Status
       2949  B84 00009310 getFlashChecksum
       2950  B85 000038C0 getHsmCounter
       2951  B86 0000FF00 getHsmFirmwareID
       2952  B87 000212D0 getHsmLicense
       2953  B88 0000C1F0 getHsmMpuLicense
       2954  B89 00003A60 getHsmState
       2955  B8A 00010730 getHsmType
       2956  B8B 00010310 getHsmVersion
       2957  B8C 00009810 getInternalFlashSize
       2958  B8D 000021D0 getJLinkList
       2959  B8E 000034F0 getKeyPointer
       2960  B8F 000095A0 getMemoryType
       2961  B90 0000B390 getMpuChipCertificate
       2962  B91 0000B7E0 getMpuProductID
       2963  B92 00003750 getOEMLockstatus
       2964  B93 00004A30 getOtpCategoryFieldName
       2965  B94 00009030 getPID
       2966  B95 00003510 getPerPointer
       2967  B96 00003520 getPermission
       2968  B97 00003540 getPermissionsNumber
       2969  B98 00004D90 getProdStateViper
       2970  B99 00003C40 getProductID
       2971  B9A 000034E0 getPwdPointer
       2972  B9B 00006C30 getRSSstate
       2973  B9C 00004740 getRamStartAddress
       2974  B9D 00010C70 getSfiSegmentInfo
       2975  B9E 00003590 getSoc1Pointer
       2976  B9F 000035A0 getSoc2Pointer
       2977  BA0 000035B0 getSoc3Pointer
       2978  BA1 000035C0 getSoc4Pointer
       2979  BA2 00004B00 getSspActualPhaseID
       2980  BA3 0000F540 getStLinkEnumerationList
       2981  BA4 0000F530 getStLinkList
       2982  BA5 0000E410 getStLinkTargetList
       2983  BA6 000094D0 getStLinkVersionId
       2984  BA7 00004B80 getStlinkCurrentAp
       2985  BA8 00004190 getStlinkCurrentFrequency
       2986  BA9 00012050 getStorageStructure
       2987  BAA 00005450 getTargetInterfaceType
       2988  BAB 00005DF0 getUID64
       2989  BAC 0001FD60 getUsartList
       2990  BAD 000091A0 getVID
       2991  BAE 00003560 getcyclePointer
       2992  BAF 0049C4C0 gkey
       2993  BB0 0049C180 gper
       2994  BB1 0049C660 gpwd
       2995  BB2 0049CAA0 hModule
       2996  BB3 00286810 htab_hash
       2997  BB4 000125D0 initOptionBytesInterface
       2998  BB5 000047F0 initOtpInterface
       2999  BB6 00005DC0 initSecurity
       3000  BB7 00016880 initSvdViewer
       3001  BB8 004A04E0 init_instance
       3002  BB9 0049C028 ipinstallhsm
       3003  BBA 000041A0 isDefaultFlashSize
       3004  BBB 00008640 isDfuIap
       3005  BBC 0049C7F4 isFactoryResetH5
       3006  BBD 0049F5B9 isFin
       3007  BBE 0049E0E0 isFlashLessAsMCU
       3008  BBF 0049C034 isNonExistingFlashLoader
       3009  BC0 00008510 isTransparentMode
       3010  BC1 0049F9B0 isterminal
       3011  BC2 0049F8F8 it
       3012  BC3 0049C838 jlinkList
       3013  BC4 0049FB80 key
       3014  BC5 0027EDB0 libusb_alloc_streams
       3015  BC6 002823C0 libusb_alloc_transfer
       3016  BC7 0027F020 libusb_attach_kernel_driver
       3017  BC8 00284CB0 libusb_bulk_transfer
       3018  BC9 00282890 libusb_cancel_transfer
       3019  BCA 0027EA80 libusb_claim_interface
       3020  BCB 0027ECC0 libusb_clear_halt
       3021  BCC 0027E5D0 libusb_close
       3022  BCD 00284A90 libusb_control_transfer
       3023  BCE 0027EF90 libusb_detach_kernel_driver
       3024  BCF 0027DBD0 libusb_dev_mem_alloc
       3025  BD0 0027DC00 libusb_dev_mem_free
       3026  BD1 0027FB90 libusb_error_name
       3027  BD2 00283770 libusb_event_handler_active
       3028  BD3 00283690 libusb_event_handling_ok
       3029  BD4 0027F0B0 libusb_exit
       3030  BD5 00281300 libusb_free_bos_descriptor
       3031  BD6 00280D10 libusb_free_config_descriptor
       3032  BD7 00281550 libusb_free_container_id_descriptor
       3033  BD8 0027E040 libusb_free_device_list
       3034  BD9 00284700 libusb_free_pollfds
       3035  BDA 00280E60 libusb_free_ss_endpoint_companion_descriptor
       3036  BDB 00281490 libusb_free_ss_usb_device_capability_descriptor
       3037  BDC 0027EE60 libusb_free_streams
       3038  BDD 00282460 libusb_free_transfer
       3039  BDE 002813D0 libusb_free_usb_2_0_extension_descriptor
       3040  BDF 00280AC0 libusb_get_active_config_descriptor
       3041  BE0 00280E70 libusb_get_bos_descriptor
       3042  BE1 0027DAA0 libusb_get_bus_number
       3043  BE2 00280B40 libusb_get_config_descriptor
       3044  BE3 00280C10 libusb_get_config_descriptor_by_value
       3045  BE4 0027E8C0 libusb_get_configuration
       3046  BE5 002814A0 libusb_get_container_id_descriptor
       3047  BE6 0027DBC0 libusb_get_device
       3048  BE7 0027DAD0 libusb_get_device_address
       3049  BE8 00280A70 libusb_get_device_descriptor
       3050  BE9 0027E170 libusb_get_device_list
       3051  BEA 0027DAE0 libusb_get_device_speed
       3052  BEB 0027DEA0 libusb_get_max_iso_packet_size
       3053  BEC 0027DE30 libusb_get_max_packet_size
       3054  BED 00283BD0 libusb_get_next_timeout
       3055  BEE 0027DAC0 libusb_get_parent
       3056  BEF 002846D0 libusb_get_pollfds
       3057  BF0 0027DAB0 libusb_get_port_number
       3058  BF1 0027DD70 libusb_get_port_numbers
       3059  BF2 0027DE20 libusb_get_port_path
       3060  BF3 00280D50 libusb_get_ss_endpoint_companion_descriptor
       3061  BF4 002813E0 libusb_get_ss_usb_device_capability_descriptor
       3062  BF5 00281560 libusb_get_string_descriptor_ascii
       3063  BF6 00281320 libusb_get_usb_2_0_extension_descriptor
       3064  BF7 0027FD00 libusb_get_version
       3065  BF8 002840A0 libusb_handle_events
       3066  BF9 002840D0 libusb_handle_events_completed
       3067  BFA 00284100 libusb_handle_events_locked
       3068  BFB 00284090 libusb_handle_events_timeout
       3069  BFC 00283E80 libusb_handle_events_timeout_completed
       3070  BFD 0027DC40 libusb_has_capability
       3071  BFE 00281C60 libusb_hotplug_deregister_callback
       3072  BFF 00282090 libusb_hotplug_get_user_data
       3073  C00 00281DD0 libusb_hotplug_register_callback
       3074  C01 0027F5A0 libusb_init
       3075  C02 00283850 libusb_interrupt_event_handler
       3076  C03 00284CE0 libusb_interrupt_transfer
       3077  C04 0027EF00 libusb_kernel_driver_active
       3078  C05 00283930 libusb_lock_event_waiters
       3079  C06 00283530 libusb_lock_events
       3080  C07 0027E3B0 libusb_open
       3081  C08 0027E500 libusb_open_device_with_vid_pid
       3082  C09 00283B40 libusb_pollfds_handle_timeouts
       3083  C0A 0027DAF0 libusb_ref_device
       3084  C0B 0027EB40 libusb_release_interface
       3085  C0C 0027ED30 libusb_reset_device
       3086  C0D 0027DC20 libusb_set_auto_detach_kernel_driver
       3087  C0E 0027EA10 libusb_set_configuration
       3088  C0F 0027F2F0 libusb_set_debug
       3089  C10 0027EBF0 libusb_set_interface_alt_setting
       3090  C11 0027F380 libusb_set_log_cb
       3091  C12 0027F410 libusb_set_option
       3092  C13 002841D0 libusb_set_pollfd_notifiers
       3093  C14 00282530 libusb_submit_transfer
       3094  C15 00283190 libusb_transfer_get_stream_id
       3095  C16 00283180 libusb_transfer_set_stream_id
       3096  C17 00283420 libusb_try_lock_events
       3097  C18 002839B0 libusb_unlock_event_waiters
       3098  C19 002835D0 libusb_unlock_events
       3099  C1A 0027DF80 libusb_unref_device
       3100  C1B 00283A30 libusb_wait_for_event
       3101  C1C 0027F9F0 libusb_wrap_sys_device
       3102  C1D 0049F720 line
       3103  C1E 0049F700 line2
       3104  C1F 0049F6E0 lines
       3105  C20 0049F6C0 lines2
       3106  C21 0049F740 list_mcr
       3107  C22 00286750 load_system_library
       3108  C23 0049E240 m_translationsTsFiles
       3109  C24 0049E258 m_translator
       3110  C25 00010EB0 massErase
       3111  C26 0049F660 mcr_params
       3112  C27 0049F640 mcr_params2
       3113  C28 0049F620 mcr_params3
       3114  C29 0049F600 mcr_params4
       3115  C2A 0049F5E0 mcr_params5
       3116  C2B 0049F5C0 mcr_params6
       3117  C2C 0049E1C8 memoryMappedMode
       3118  C2D 0049F9A0 nbrStlink
       3119  C2E 00016660 obDisplay
       3120  C2F 0049FAB0 obRequest
       3121  C30 0049C818 option_bytes_structure
       3122  C31 0049CAD8 otp_display
       3123  C32 0049CAC0 otp_fwrite
       3124  C33 0049CAD0 otp_program
       3125  C34 0049C810 otp_structure
       3126  C35 0049CAC8 otp_write
       3127  C36 0049CB08 otpv2_display
       3128  C37 0049CAF0 otpv2_fwrite
       3129  C38 0049CAF8 otpv2_lock
       3130  C39 0049CB00 otpv2_write
       3131  C3A 0049F8D8 pCLI_G
       3132  C3B 0049F8F0 pDisplayMng_G
       3133  C3C 0049F8E0 pFileMng_G
       3134  C3D 0049C058 pSerialPort
       3135  C3E 0049F8E8 pTargetInteface_G
       3136  C3F 0049FB40 per
       3137  C40 003A9980 poly8_lookup
       3138  C41 0049F9E0 portName
       3139  C42 003A93E0 posElblParam
       3140  C43 003A93E4 posSfixParam
       3141  C44 0049C040 prgArch
       3142  C45 00004E00 printOtpHashValue
       3143  C46 0049E0E8 probe
       3144  C47 0049C020 programIPModuleOK
       3145  C48 0049C021 programLicenseOK
       3146  C49 000138C0 programSfi
       3147  C4A 0000BB00 programSsp
       3148  C4B 0049FBA0 pwd
       3149  C4C 00444000 qt_version_tag_6_6_used
       3150  C4D 00003E60 read32Registers
       3151  C4E 00003EB0 readCortexReg
       3152  C4F 00014AE0 readMemory
       3153  C50 0000C640 readOtpPartition
       3154  C51 000050A0 readPersoDataRsseVersion
       3155  C52 000051C0 readPmicPartition
       3156  C53 00004320 readSvdPeripheral
       3157  C54 00002C40 readUnprotect
       3158  C55 00016C70 removeExternalLoader
       3159  C56 00003DD0 reset
       3160  C57 0049F818 rx_declaration_cmd
       3161  C58 0049F7A0 rx_declaration_opt
       3162  C59 0049F820 rx_delay_cmd
       3163  C5A 0049F7B0 rx_delay_opt
       3164  C5B 0049F868 rx_display_cmd
       3165  C5C 0049F838 rx_display_error_cmd
       3166  C5D 0049F848 rx_display_int_cmd
       3167  C5E 0049F7D0 rx_display_opt
       3168  C5F 0049F840 rx_display_var_cmd
       3169  C60 0049F808 rx_elseif_condition_cmd
       3170  C61 0049F790 rx_elseif_condition_opt
       3171  C62 0049F828 rx_filling_var_cmd
       3172  C63 0049F7B8 rx_filling_var_opt
       3173  C64 0049F800 rx_for_condition_cmd
       3174  C65 0049F788 rx_for_condition_opt
       3175  C66 0049F810 rx_if_condition_cmd
       3176  C67 0049F798 rx_if_condition_opt
       3177  C68 0049F870 rx_read_cmd
       3178  C69 0049F850 rx_read_con_cmd
       3179  C6A 0049F7D8 rx_read_opt
       3180  C6B 0049F858 rx_read_var_cmd
       3181  C6C 0049F860 rx_scan_cmd
       3182  C6D 0049F7C8 rx_scan_opt
       3183  C6E 0049F7A8 rx_start_opt
       3184  C6F 0049F830 rx_var_cmd
       3185  C70 0049F7C0 rx_var_opt
       3186  C71 0049F7F8 rx_while_condition_cmd
       3187  C72 0049F780 rx_while_condition_opt
       3188  C73 0049F8C8 rx_write16_cmd
       3189  C74 0049F7E8 rx_write16_opt
       3190  C75 0049F8D0 rx_write32_cmd
       3191  C76 0049F7F0 rx_write32_opt
       3192  C77 0049F8C0 rx_write8_cmd
       3193  C78 0049F7E0 rx_write8_opt
       3194  C79 0049F898 rx_write_add16_cmd
       3195  C7A 0049F8A0 rx_write_add32_cmd
       3196  C7B 0049F890 rx_write_add8_cmd
       3197  C7C 0049F8B0 rx_write_var16_cmd
       3198  C7D 0049F8B8 rx_write_var32_cmd
       3199  C7E 0049F8A8 rx_write_var8_cmd
       3200  C7F 0049F880 rx_write_var_add16_cmd
       3201  C80 0049F888 rx_write_var_add32_cmd
       3202  C81 0049F878 rx_write_var_add8_cmd
       3203  C82 000172D0 saveFileToFile
       3204  C83 00017580 saveMemoryToFile
       3205  C84 00015650 saveOtpPartition
       3206  C85 00008FA0 saveSvdDeviceToFile
       3207  C86 00008F10 saveSvdPeripheralToFile
       3208  C87 0000E2B0 searchSvd
       3209  C88 000118F0 sectorErase
       3210  C89 00004BF0 secureManagerTracking
       3211  C8A 0049F9DC security_alive
       3212  C8B 00003DA0 sendByteUart
       3213  C8C 00015A30 sendOptionBytesCmd
       3214  C8D 0001FF60 serialNumberingAutomaticMode
       3215  C8E 0000CA70 setDisplayCallbacks
       3216  C8F 0001D310 setExternalLoaderOBL
       3217  C90 0001DE80 setExternalLoaderPath
       3218  C91 000032E0 setLoadersPath
       3219  C92 000045A0 setPID
       3220  C93 00003530 setPermission
       3221  C94 000053B0 setTranslationFilesPath
       3222  C95 00004590 setVID
       3223  C96 00001E30 setVerbosityLevel
       3224  C97 0049C0AC soc1
       3225  C98 0049C0A8 soc2
       3226  C99 0049C0A4 soc3
       3227  C9A 0049C0A0 soc4
       3228  C9B 0049C840 stLinkList
       3229  C9C 00006870 startFus
       3230  C9D 000045E0 startScriptManager
       3231  C9E 00007100 startWirelessStack
       3232  C9F 0049F778 start_address
       3233  CA0 0049C7F0 status
       3234  CA1 0049C090 svd_device
       3235  CA2 0049C088 svd_periph
       3236  CA3 000040A0 swvClose
       3237  CA4 00004140 swvCloseLogFile
       3238  CA5 00003FF0 swvConfig
       3239  CA6 000087A0 swvGetPrintfData
       3240  CA7 00003FC0 swvIsSupported
       3241  CA8 0000E090 swvOpenLogFile
       3242  CA9 00004100 swvResetInfo
       3243  CAA 000040D0 swvRestartReception
       3244  CAB 004A04CC t
       3245  CAC 004A0380 tab_index
       3246  CAD 004A0420 tab_name
       3247  CAE 004A0320 tab_num
       3248  CAF 004A0180 temp
       3249  CB0 0049FFE0 temp1
       3250  CB1 0049FE40 temp2
       3251  CB2 0049FCA0 temp3
       3252  CB3 0049FBC0 temp4
       3253  CB4 0049FB20 tt
       3254  CB5 000035D0 unLockRDP1
       3255  CB6 000221D0 unLockRDP2
       3256  CB7 00019400 unLockRDP2Jlink
       3257  CB8 003A93F4 unchecked
       3258  CB9 000046A0 unlockchip
       3259  CBA 003A93F0 unused
       3260  CBB 00004E80 unzipFile
       3261  CBC 0000A900 updateAuthKey
       3262  CBD 0049C830 usartList
       3263  CBE 0042BC60 usb_api_backend
       3264  CBF 00286A70 usbd_status_to_libusb_transfer_status
       3265  CC0 00428320 usbdk_backend
       3266  CC1 002841F0 usbi_add_event_source
       3267  CC2 0027D9C0 usbi_alloc_device
       3268  CC3 00285080 usbi_alloc_event_data
       3269  CC4 00284F20 usbi_arm_timer
       3270  CC5 00427B80 usbi_backend
       3271  CC6 00284E20 usbi_clear_event
       3272  CC7 00285290 usbi_cond_timedwait
       3273  CC8 0027D950 usbi_connect_device
       3274  CC9 00284D10 usbi_create_event
       3275  CCA 00284E70 usbi_create_timer
       3276  CCB 004A1720 usbi_default_context
       3277  CCC 00284D80 usbi_destroy_event
       3278  CCD 00284ED0 usbi_destroy_timer
       3279  CCE 00284FF0 usbi_disarm_timer
       3280  CCF 0027DA30 usbi_disconnect_device
       3281  CD0 004A1728 usbi_fallback_context
       3282  CD1 0027DB40 usbi_get_device_by_session_id
       3283  CD2 00286C10 usbi_get_monotonic_time
       3284  CD3 00284710 usbi_handle_disconnect
       3285  CD4 00283300 usbi_handle_transfer_cancellation
       3286  CD5 002831A0 usbi_handle_transfer_completion
       3287  CD6 00281800 usbi_hotplug_exit
       3288  CD7 002817A0 usbi_hotplug_init
       3289  CD8 002819C0 usbi_hotplug_notification
       3290  CD9 00281AB0 usbi_hotplug_process
       3291  CDA 00284620 usbi_io_exit
       3292  CDB 002843F0 usbi_io_init
       3293  CDC 0027DCA0 usbi_log
       3294  CDD 002842D0 usbi_remove_event_source
       3295  CDE 0027DCD0 usbi_sanitize_device
       3296  CDF 00284DD0 usbi_signal_event
       3297  CE0 00283380 usbi_signal_transfer_completion
       3298  CE1 00285180 usbi_wait_for_events
       3299  CE2 0049F900 variable
       3300  CE3 0049F5A0 vas
       3301  CE4 000173E0 verify
       3302  CE5 0049C070 versionAPI
       3303  CE6 00285C30 windows_error_str
       3304  CE7 00286B00 windows_force_sync_completion
       3305  CE8 004A0700 windows_version
       3306  CE9 0042BFC0 winusb_backend
       3307  CEA 00003E30 write32Registers
       3308  CEB 00003E90 writeCortexRegistres
       3309  CEC 00002400 writeMemory
       3310  CED 00017670 writePmicPartition
       3311  CEE 00004480 writeSvdViewerRegisters
       3312  CEF 00017810 writeUserKey

  Summary

        1000 .CRT
        6000 .bss
        4000 .data
       2B000 .edata
        8000 .idata
       16000 .pdata
        1000 .qtversion
       97000 .rdata
        3000 .reloc
        1000 .rsrc
      3A8000 .text
        1000 .tls
       41000 .xdata
